
bootldr.elf:     file format elf32-littlearm


Disassembly of section .text:

02000000 <boot_entry>:
 2000000:	e3a00301 	mov	r0, #67108864	; 0x4000000
 2000004:	e5800208 	str	r0, [r0, #520]	; 0x208
 2000008:	e59f10d0 	ldr	r1, [pc, #208]	; 20000e0 <CONFIG_LOADER_TEXT+0xe0>
 200000c:	e2800fc1 	add	r0, r0, #772	; 0x304
 2000010:	e1c010b0 	strh	r1, [r0]
 2000014:	e59f10c8 	ldr	r1, [pc, #200]	; 20000e4 <CONFIG_LOADER_TEXT+0xe4>
 2000018:	ee011f10 	mcr	15, 0, r1, cr1, cr0, {0}
 200001c:	e3a00000 	mov	r0, #0
 2000020:	ee070f15 	mcr	15, 0, r0, cr7, cr5, {0}
 2000024:	ee070f16 	mcr	15, 0, r0, cr7, cr6, {0}
 2000028:	ee070f9a 	mcr	15, 0, r0, cr7, cr10, {4}
 200002c:	e3a0040b 	mov	r0, #184549376	; 0xb000000
 2000030:	e380000a 	orr	r0, r0, #10
 2000034:	ee090f11 	mcr	15, 0, r0, cr9, cr1, {0}
 2000038:	e3a00020 	mov	r0, #32
 200003c:	ee090f31 	mcr	15, 0, r0, cr9, cr1, {1}
 2000040:	e59f00a0 	ldr	r0, [pc, #160]	; 20000e8 <CONFIG_LOADER_TEXT+0xe8>
 2000044:	ee060f10 	mcr	15, 0, r0, cr6, cr0, {0}
 2000048:	e59f009c 	ldr	r0, [pc, #156]	; 20000ec <CONFIG_LOADER_TEXT+0xec>
 200004c:	ee060f11 	mcr	15, 0, r0, cr6, cr1, {0}
 2000050:	e3a00017 	mov	r0, #23
 2000054:	ee060f12 	mcr	15, 0, r0, cr6, cr2, {0}
 2000058:	e59f0090 	ldr	r0, [pc, #144]	; 20000f0 <CONFIG_LOADER_TEXT+0xf0>
 200005c:	ee060f13 	mcr	15, 0, r0, cr6, cr3, {0}
 2000060:	e3a0040b 	mov	r0, #184549376	; 0xb000000
 2000064:	e380001b 	orr	r0, r0, #27
 2000068:	ee060f14 	mcr	15, 0, r0, cr6, cr4, {0}
 200006c:	e59f0080 	ldr	r0, [pc, #128]	; 20000f4 <CONFIG_LOADER_TEXT+0xf4>
 2000070:	e1a007a0 	lsr	r0, r0, #15
 2000074:	e1a00780 	lsl	r0, r0, #15
 2000078:	e380001d 	orr	r0, r0, #29
 200007c:	ee060f15 	mcr	15, 0, r0, cr6, cr5, {0}
 2000080:	e59f0070 	ldr	r0, [pc, #112]	; 20000f8 <CONFIG_LOADER_TEXT+0xf8>
 2000084:	ee060f16 	mcr	15, 0, r0, cr6, cr6, {0}
 2000088:	e59f006c 	ldr	r0, [pc, #108]	; 20000fc <CONFIG_LOADER_TEXT+0xfc>
 200008c:	ee060f17 	mcr	15, 0, r0, cr6, cr7, {0}
 2000090:	e3a00002 	mov	r0, #2
 2000094:	ee030f10 	mcr	15, 0, r0, cr3, cr0, {0}
 2000098:	e3a00042 	mov	r0, #66	; 0x42
 200009c:	ee020f10 	mcr	15, 0, r0, cr2, cr0, {0}
 20000a0:	ee020f30 	mcr	15, 0, r0, cr2, cr0, {1}
 20000a4:	e59f0054 	ldr	r0, [pc, #84]	; 2000100 <CONFIG_LOADER_TEXT+0x100>
 20000a8:	ee050f70 	mcr	15, 0, r0, cr5, cr0, {3}
 20000ac:	e59f0050 	ldr	r0, [pc, #80]	; 2000104 <CONFIG_LOADER_TEXT+0x104>
 20000b0:	ee050f50 	mcr	15, 0, r0, cr5, cr0, {2}
 20000b4:	ee110f10 	mrc	15, 0, r0, cr1, cr0, {0}
 20000b8:	e59f1048 	ldr	r1, [pc, #72]	; 2000108 <CONFIG_LOADER_TEXT+0x108>
 20000bc:	e1800001 	orr	r0, r0, r1
 20000c0:	ee010f10 	mcr	15, 0, r0, cr1, cr0, {0}
 20000c4:	e3a000d3 	mov	r0, #211	; 0xd3
 20000c8:	e121f000 	msr	CPSR_c, r0
 20000cc:	e59fd038 	ldr	sp, [pc, #56]	; 200010c <CONFIG_LOADER_TEXT+0x10c>
 20000d0:	e3a00301 	mov	r0, #67108864	; 0x4000000
 20000d4:	e3a01801 	mov	r1, #65536	; 0x10000
 20000d8:	e5801000 	str	r1, [r0]
 20000dc:	ea000076 	b	20002bc <main>
 20000e0:	00008203 	andeq	r8, r0, r3, lsl #4
 20000e4:	00002078 	andeq	r2, r0, r8, ror r0
 20000e8:	04000033 	streq	r0, [r0], #-51	; 0x33
 20000ec:	0200002b 	andeq	r0, r0, #43	; 0x2b
 20000f0:	08000035 	stmdaeq	r0, {r0, r2, r4, r5}
 20000f4:	01000100 	tsteq	r0, r0, lsl #2
 20000f8:	ffff001d 	undefined instruction 0xffff001d
 20000fc:	0240002b 	subeq	r0, r0, #43	; 0x2b
 2000100:	36636633 	undefined instruction 0x36636633
 2000104:	36333633 	undefined instruction 0x36333633
 2000108:	00051005 	andeq	r1, r5, r5
 200010c:	0b003900 	bleq	200e514 <CONFIG_BOOTIMG_BASE+0xc514>

02000110 <desmume_puts>:
 2000110:	dffc      	svc	252	; 0xfc
 2000112:	4770      	bx	lr
 2000114:	46c0      	nop			; (mov r8, r8)
 2000116:	46c0      	nop			; (mov r8, r8)
 2000118:	46c0      	nop			; (mov r8, r8)
 200011a:	46c0      	nop			; (mov r8, r8)
 200011c:	46c0      	nop			; (mov r8, r8)
 200011e:	46c0      	nop			; (mov r8, r8)

02000120 <startup>:
 2000120:	e59f3048 	ldr	r3, [pc, #72]	; 2000170 <startup+0x50>
 2000124:	e3a01002 	mov	r1, #2
 2000128:	e5933000 	ldr	r3, [r3]
 200012c:	e3a02001 	mov	r2, #1
 2000130:	e5831070 	str	r1, [r3, #112]	; 0x70
 2000134:	e281104e 	add	r1, r1, #78	; 0x4e
 2000138:	e5831008 	str	r1, [r3, #8]
 200013c:	e3a01019 	mov	r1, #25
 2000140:	e583100c 	str	r1, [r3, #12]
 2000144:	e3a01401 	mov	r1, #16777216	; 0x1000000
 2000148:	e5831010 	str	r1, [r3, #16]
 200014c:	e3a01902 	mov	r1, #32768	; 0x8000
 2000150:	e5831014 	str	r1, [r3, #20]
 2000154:	e3a01402 	mov	r1, #33554432	; 0x2000000
 2000158:	e583101c 	str	r1, [r3, #28]
 200015c:	e2411507 	sub	r1, r1, #29360128	; 0x1c00000
 2000160:	e5831020 	str	r1, [r3, #32]
 2000164:	e5832024 	str	r2, [r3, #36]	; 0x24
 2000168:	e5832018 	str	r2, [r3, #24]
 200016c:	e12fff1e 	bx	lr
 2000170:	02001204 	andeq	r1, r0, #1073741824	; 0x40000000

02000174 <debug_init>:
 2000174:	e12fff1e 	bx	lr

02000178 <debug_putc>:
 2000178:	e92d4070 	push	{r4, r5, r6, lr}
 200017c:	e59f3040 	ldr	r3, [pc, #64]	; 20001c4 <debug_putc+0x4c>
 2000180:	e350000a 	cmp	r0, #10
 2000184:	e5932000 	ldr	r2, [r3]
 2000188:	e0831002 	add	r1, r3, r2
 200018c:	e5c10004 	strb	r0, [r1, #4]
 2000190:	0a000003 	beq	20001a4 <debug_putc+0x2c>
 2000194:	e3520050 	cmp	r2, #80	; 0x50
 2000198:	12822001 	addne	r2, r2, #1
 200019c:	15832000 	strne	r2, [r3]
 20001a0:	18bd8070 	popne	{r4, r5, r6, pc}
 20001a4:	e59f4018 	ldr	r4, [pc, #24]	; 20001c4 <debug_putc+0x4c>
 20001a8:	e3a05000 	mov	r5, #0
 20001ac:	e0842002 	add	r2, r4, r2
 20001b0:	e2840004 	add	r0, r4, #4
 20001b4:	e5c25004 	strb	r5, [r2, #4]
 20001b8:	faffffd4 	blx	2000110 <desmume_puts>
 20001bc:	e5845000 	str	r5, [r4]
 20001c0:	e8bd8070 	pop	{r4, r5, r6, pc}
 20001c4:	02001674 	andeq	r1, r0, #121634816	; 0x7400000

020001c8 <relocate_rela>:
 20001c8:	e92d4010 	push	{r4, lr}
 20001cc:	e59f0008 	ldr	r0, [pc, #8]	; 20001dc <relocate_rela+0x14>
 20001d0:	eb000033 	bl	20002a4 <panic>
 20001d4:	e3e00000 	mvn	r0, #0
 20001d8:	e8bd8010 	pop	{r4, pc}
 20001dc:	0200121c 	andeq	r1, r0, #-1073741823	; 0xc0000001

020001e0 <relocate_rel>:
 20001e0:	e92d4010 	push	{r4, lr}
 20001e4:	e5d03004 	ldrb	r3, [r0, #4]
 20001e8:	e5900000 	ldr	r0, [r0]
 20001ec:	e1a0c002 	mov	ip, r2
 20001f0:	e3530002 	cmp	r3, #2
 20001f4:	e1a02001 	mov	r2, r1
 20001f8:	e08c1000 	add	r1, ip, r0
 20001fc:	0a00000a 	beq	200022c <relocate_rel+0x4c>
 2000200:	8a000005 	bhi	200021c <relocate_rel+0x3c>
 2000204:	e3530000 	cmp	r3, #0
 2000208:	01a00003 	moveq	r0, r3
 200020c:	08bd8010 	popeq	{r4, pc}
 2000210:	e3530001 	cmp	r3, #1
 2000214:	1a000017 	bne	2000278 <relocate_rel+0x98>
 2000218:	ea000008 	b	2000240 <relocate_rel+0x60>
 200021c:	e243e01b 	sub	lr, r3, #27
 2000220:	e35e0002 	cmp	lr, #2
 2000224:	8a000013 	bhi	2000278 <relocate_rel+0x98>
 2000228:	ea000004 	b	2000240 <relocate_rel+0x60>
 200022c:	e79c3000 	ldr	r3, [ip, r0]
 2000230:	e0822003 	add	r2, r2, r3
 2000234:	e78c2000 	str	r2, [ip, r0]
 2000238:	e59f0054 	ldr	r0, [pc, #84]	; 2000294 <relocate_rel+0xb4>
 200023c:	ea00000a 	b	200026c <relocate_rel+0x8c>
 2000240:	e79c3000 	ldr	r3, [ip, r0]
 2000244:	e0612002 	rsb	r2, r1, r2
 2000248:	e3c3e4ff 	bic	lr, r3, #-16777216	; 0xff000000
 200024c:	e3130502 	tst	r3, #8388608	; 0x800000
 2000250:	138ee4ff 	orrne	lr, lr, #-16777216	; 0xff000000
 2000254:	e082210e 	add	r2, r2, lr, lsl #2
 2000258:	e1a02302 	lsl	r2, r2, #6
 200025c:	e20334ff 	and	r3, r3, #-16777216	; 0xff000000
 2000260:	e1832422 	orr	r2, r3, r2, lsr #8
 2000264:	e78c2000 	str	r2, [ip, r0]
 2000268:	e59f0028 	ldr	r0, [pc, #40]	; 2000298 <relocate_rel+0xb8>
 200026c:	eb000331 	bl	2000f38 <printf>
 2000270:	e3a00000 	mov	r0, #0
 2000274:	e8bd8010 	pop	{r4, pc}
 2000278:	e1a01003 	mov	r1, r3
 200027c:	e59f0018 	ldr	r0, [pc, #24]	; 200029c <relocate_rel+0xbc>
 2000280:	eb00032c 	bl	2000f38 <printf>
 2000284:	e59f0014 	ldr	r0, [pc, #20]	; 20002a0 <relocate_rel+0xc0>
 2000288:	eb000005 	bl	20002a4 <panic>
 200028c:	e3e00000 	mvn	r0, #0
 2000290:	e8bd8010 	pop	{r4, pc}
 2000294:	02001234 	andeq	r1, r0, #1073741827	; 0x40000003
 2000298:	0200124d 	andeq	r1, r0, #-805306364	; 0xd0000004
 200029c:	02001265 	andeq	r1, r0, #1342177286	; 0x50000006
 20002a0:	02001280 	andeq	r1, r0, #8

020002a4 <panic>:
 20002a4:	e1a01000 	mov	r1, r0
 20002a8:	e92d4010 	push	{r4, lr}
 20002ac:	e59f0004 	ldr	r0, [pc, #4]	; 20002b8 <panic+0x14>
 20002b0:	eb000320 	bl	2000f38 <printf>
 20002b4:	eafffffe 	b	20002b4 <panic+0x10>
 20002b8:	02001290 	andeq	r1, r0, #9

020002bc <main>:
 20002bc:	e59f3054 	ldr	r3, [pc, #84]	; 2000318 <main+0x5c>
 20002c0:	e92d4010 	push	{r4, lr}
 20002c4:	e5934000 	ldr	r4, [r3]
 20002c8:	e3a02b01 	mov	r2, #1024	; 0x400
 20002cc:	e3a01000 	mov	r1, #0
 20002d0:	e1a00004 	mov	r0, r4
 20002d4:	eb00030f 	bl	2000f18 <memset>
 20002d8:	ebffffa5 	bl	2000174 <debug_init>
 20002dc:	e59f0038 	ldr	r0, [pc, #56]	; 200031c <main+0x60>
 20002e0:	eb000314 	bl	2000f38 <printf>
 20002e4:	ebffff8d 	bl	2000120 <startup>
 20002e8:	eb0002c3 	bl	2000dfc <splash>
 20002ec:	eb00003d 	bl	20003e8 <load_os>
 20002f0:	eb00000d 	bl	200032c <dump_bootinfo>
 20002f4:	e594409c 	ldr	r4, [r4, #156]	; 0x9c
 20002f8:	e59f0020 	ldr	r0, [pc, #32]	; 2000320 <main+0x64>
 20002fc:	e1a01004 	mov	r1, r4
 2000300:	eb00030c 	bl	2000f38 <printf>
 2000304:	e12fff34 	blx	r4
 2000308:	e59f0014 	ldr	r0, [pc, #20]	; 2000324 <main+0x68>
 200030c:	e59f1014 	ldr	r1, [pc, #20]	; 2000328 <main+0x6c>
 2000310:	eb000308 	bl	2000f38 <printf>
 2000314:	eafffffe 	b	2000314 <main+0x58>
 2000318:	02001204 	andeq	r1, r0, #1073741824	; 0x40000000
 200031c:	0200129b 	andeq	r1, r0, #-1342177271	; 0xb0000009
 2000320:	020012ad 	andeq	r1, r0, #-805306358	; 0xd000000a
 2000324:	02001290 	andeq	r1, r0, #9
 2000328:	020012ce 	andeq	r1, r0, #-536870900	; 0xe000000c

0200032c <dump_bootinfo>:
 200032c:	e12fff1e 	bx	lr

02000330 <load_module>:
 2000330:	e92d4070 	push	{r4, r5, r6, lr}
 2000334:	e3a02002 	mov	r2, #2
 2000338:	e1a05000 	mov	r5, r0
 200033c:	e1a04001 	mov	r4, r1
 2000340:	e280003a 	add	r0, r0, #58	; 0x3a
 2000344:	e59f108c 	ldr	r1, [pc, #140]	; 20003d8 <load_module+0xa8>
 2000348:	eb0002d7 	bl	2000eac <strncmp>
 200034c:	e3500000 	cmp	r0, #0
 2000350:	0a000004 	beq	2000368 <load_module+0x38>
 2000354:	e59f0080 	ldr	r0, [pc, #128]	; 20003dc <load_module+0xac>
 2000358:	e1a01005 	mov	r1, r5
 200035c:	eb0002f5 	bl	2000f38 <printf>
 2000360:	e3e00000 	mvn	r0, #0
 2000364:	e8bd8070 	pop	{r4, r5, r6, pc}
 2000368:	e1a00004 	mov	r0, r4
 200036c:	e1a01005 	mov	r1, r5
 2000370:	e3a02010 	mov	r2, #16
 2000374:	eb0002b4 	bl	2000e4c <strlcpy>
 2000378:	e1a03004 	mov	r3, r4
 200037c:	ea000000 	b	2000384 <load_module+0x54>
 2000380:	e2833001 	add	r3, r3, #1
 2000384:	e5d36000 	ldrb	r6, [r3]
 2000388:	e3560020 	cmp	r6, #32
 200038c:	1356002f 	cmpne	r6, #47	; 0x2f
 2000390:	03a06000 	moveq	r6, #0
 2000394:	13a06001 	movne	r6, #1
 2000398:	1afffff8 	bne	2000380 <load_module+0x50>
 200039c:	e5c36000 	strb	r6, [r3]
 20003a0:	e59f0038 	ldr	r0, [pc, #56]	; 20003e0 <load_module+0xb0>
 20003a4:	e1a01005 	mov	r1, r5
 20003a8:	e1a02004 	mov	r2, r4
 20003ac:	e1a03004 	mov	r3, r4
 20003b0:	eb0002e0 	bl	2000f38 <printf>
 20003b4:	e285003c 	add	r0, r5, #60	; 0x3c
 20003b8:	e1a01004 	mov	r1, r4
 20003bc:	eb0000a5 	bl	2000658 <load_elf>
 20003c0:	e3500000 	cmp	r0, #0
 20003c4:	08bd8070 	popeq	{r4, r5, r6, pc}
 20003c8:	e59f0014 	ldr	r0, [pc, #20]	; 20003e4 <load_module+0xb4>
 20003cc:	ebffffb4 	bl	20002a4 <panic>
 20003d0:	e1a00006 	mov	r0, r6
 20003d4:	e8bd8070 	pop	{r4, r5, r6, pc}
 20003d8:	020012d4 	andeq	r1, r0, #1073741837	; 0x4000000d
 20003dc:	020012d7 	andeq	r1, r0, #1879048205	; 0x7000000d
 20003e0:	020012e9 	andeq	r1, r0, #-1879048178	; 0x9000000e
 20003e4:	0200130e 	andeq	r1, r0, #939524096	; 0x38000000

020003e8 <load_os>:
 20003e8:	e59fc21c 	ldr	ip, [pc, #540]	; 200060c <load_os+0x224>
 20003ec:	e92d4ff8 	push	{r3, r4, r5, r6, r7, r8, r9, sl, fp, lr}
 20003f0:	e3a03000 	mov	r3, #0
 20003f4:	e58c3000 	str	r3, [ip]
 20003f8:	e59fc210 	ldr	ip, [pc, #528]	; 2000610 <load_os+0x228>
 20003fc:	e59f0210 	ldr	r0, [pc, #528]	; 2000614 <load_os+0x22c>
 2000400:	e58c3000 	str	r3, [ip]
 2000404:	e59fc20c 	ldr	ip, [pc, #524]	; 2000618 <load_os+0x230>
 2000408:	e59f120c 	ldr	r1, [pc, #524]	; 200061c <load_os+0x234>
 200040c:	e58c3000 	str	r3, [ip]
 2000410:	e59f3208 	ldr	r3, [pc, #520]	; 2000620 <load_os+0x238>
 2000414:	e3a02008 	mov	r2, #8
 2000418:	e5936000 	ldr	r6, [r3]
 200041c:	eb0002a2 	bl	2000eac <strncmp>
 2000420:	e3500000 	cmp	r0, #0
 2000424:	0a000001 	beq	2000430 <load_os+0x48>
 2000428:	e59f01f4 	ldr	r0, [pc, #500]	; 2000624 <load_os+0x23c>
 200042c:	ebffff9c 	bl	20002a4 <panic>
 2000430:	e59f01f0 	ldr	r0, [pc, #496]	; 2000628 <load_os+0x240>
 2000434:	e2861084 	add	r1, r6, #132	; 0x84
 2000438:	ebffffbc 	bl	2000330 <load_module>
 200043c:	e3500000 	cmp	r0, #0
 2000440:	0a000001 	beq	200044c <load_os+0x64>
 2000444:	e59f01e0 	ldr	r0, [pc, #480]	; 200062c <load_os+0x244>
 2000448:	ebffff95 	bl	20002a4 <panic>
 200044c:	e59f01dc 	ldr	r0, [pc, #476]	; 2000630 <load_os+0x248>
 2000450:	eb00026a 	bl	2000e00 <atol>
 2000454:	e2103106 	ands	r3, r0, #-2147483647	; 0x80000001
 2000458:	42433001 	submi	r3, r3, #1
 200045c:	41e03f83 	mvnmi	r3, r3, lsl #31
 2000460:	41e03fa3 	mvnmi	r3, r3, lsr #31
 2000464:	42833001 	addmi	r3, r3, #1
 2000468:	e0935000 	adds	r5, r3, r0
 200046c:	1a000001 	bne	2000478 <load_os+0x90>
 2000470:	e59f01bc 	ldr	r0, [pc, #444]	; 2000634 <load_os+0x24c>
 2000474:	ebffff8a 	bl	20002a4 <panic>
 2000478:	e59f41b8 	ldr	r4, [pc, #440]	; 2000638 <load_os+0x250>
 200047c:	e28610b4 	add	r1, r6, #180	; 0xb4
 2000480:	e0854004 	add	r4, r5, r4
 2000484:	e1a00004 	mov	r0, r4
 2000488:	ebffffa8 	bl	2000330 <load_module>
 200048c:	e3500000 	cmp	r0, #0
 2000490:	0a000001 	beq	200049c <load_os+0xb4>
 2000494:	e59f01a0 	ldr	r0, [pc, #416]	; 200063c <load_os+0x254>
 2000498:	ebffff81 	bl	20002a4 <panic>
 200049c:	e59f917c 	ldr	r9, [pc, #380]	; 2000620 <load_os+0x238>
 20004a0:	e286a0e4 	add	sl, r6, #228	; 0xe4
 20004a4:	e3a07000 	mov	r7, #0
 20004a8:	e3a0800c 	mov	r8, #12
 20004ac:	e3a0b004 	mov	fp, #4
 20004b0:	e2840030 	add	r0, r4, #48	; 0x30
 20004b4:	eb000251 	bl	2000e00 <atol>
 20004b8:	e2103106 	ands	r3, r0, #-2147483647	; 0x80000001
 20004bc:	42433001 	submi	r3, r3, #1
 20004c0:	41e03f83 	mvnmi	r3, r3, lsl #31
 20004c4:	41e03fa3 	mvnmi	r3, r3, lsr #31
 20004c8:	42833001 	addmi	r3, r3, #1
 20004cc:	e0933000 	adds	r3, r3, r0
 20004d0:	0a000037 	beq	20005b4 <load_os+0x1cc>
 20004d4:	e284403c 	add	r4, r4, #60	; 0x3c
 20004d8:	e0844003 	add	r4, r4, r3
 20004dc:	e284503a 	add	r5, r4, #58	; 0x3a
 20004e0:	e1a00005 	mov	r0, r5
 20004e4:	e59f1154 	ldr	r1, [pc, #340]	; 2000640 <load_os+0x258>
 20004e8:	e3a02002 	mov	r2, #2
 20004ec:	eb00026e 	bl	2000eac <strncmp>
 20004f0:	e3500000 	cmp	r0, #0
 20004f4:	1a00002e 	bne	20005b4 <load_os+0x1cc>
 20004f8:	e1a00004 	mov	r0, r4
 20004fc:	e59f1140 	ldr	r1, [pc, #320]	; 2000644 <load_os+0x25c>
 2000500:	e3a0200a 	mov	r2, #10
 2000504:	eb000268 	bl	2000eac <strncmp>
 2000508:	e3500000 	cmp	r0, #0
 200050c:	1a000021 	bne	2000598 <load_os+0x1b0>
 2000510:	e1a00005 	mov	r0, r5
 2000514:	e59f1124 	ldr	r1, [pc, #292]	; 2000640 <load_os+0x258>
 2000518:	e3a02002 	mov	r2, #2
 200051c:	e5995000 	ldr	r5, [r9]
 2000520:	eb000261 	bl	2000eac <strncmp>
 2000524:	e3500000 	cmp	r0, #0
 2000528:	159f0118 	ldrne	r0, [pc, #280]	; 2000648 <load_os+0x260>
 200052c:	1a000005 	bne	2000548 <load_os+0x160>
 2000530:	e2840030 	add	r0, r4, #48	; 0x30
 2000534:	eb000231 	bl	2000e00 <atol>
 2000538:	e2002001 	and	r2, r0, #1
 200053c:	e0922000 	adds	r2, r2, r0
 2000540:	1a000002 	bne	2000550 <load_os+0x168>
 2000544:	e59f0100 	ldr	r0, [pc, #256]	; 200064c <load_os+0x264>
 2000548:	eb00027a 	bl	2000f38 <printf>
 200054c:	eaffffd7 	b	20004b0 <load_os+0xc8>
 2000550:	e5953070 	ldr	r3, [r5, #112]	; 0x70
 2000554:	e284103c 	add	r1, r4, #60	; 0x3c
 2000558:	e0235398 	mla	r3, r8, r3, r5
 200055c:	e5851074 	str	r1, [r5, #116]	; 0x74
 2000560:	e5852078 	str	r2, [r5, #120]	; 0x78
 2000564:	e5831010 	str	r1, [r3, #16]
 2000568:	e5953070 	ldr	r3, [r5, #112]	; 0x70
 200056c:	e59f00dc 	ldr	r0, [pc, #220]	; 2000650 <load_os+0x268>
 2000570:	e0235398 	mla	r3, r8, r3, r5
 2000574:	e5832014 	str	r2, [r3, #20]
 2000578:	e5953070 	ldr	r3, [r5, #112]	; 0x70
 200057c:	e0235398 	mla	r3, r8, r3, r5
 2000580:	e583b018 	str	fp, [r3, #24]
 2000584:	e5953070 	ldr	r3, [r5, #112]	; 0x70
 2000588:	e2833001 	add	r3, r3, #1
 200058c:	e5853070 	str	r3, [r5, #112]	; 0x70
 2000590:	eb000268 	bl	2000f38 <printf>
 2000594:	eaffffc5 	b	20004b0 <load_os+0xc8>
 2000598:	e1a00004 	mov	r0, r4
 200059c:	e1a0100a 	mov	r1, sl
 20005a0:	ebffff62 	bl	2000330 <load_module>
 20005a4:	e3500000 	cmp	r0, #0
 20005a8:	02877001 	addeq	r7, r7, #1
 20005ac:	028aa030 	addeq	sl, sl, #48	; 0x30
 20005b0:	0affffbe 	beq	20004b0 <load_os+0xc8>
 20005b4:	e3570000 	cmp	r7, #0
 20005b8:	e5867080 	str	r7, [r6, #128]	; 0x80
 20005bc:	1a000001 	bne	20005c8 <load_os+0x1e0>
 20005c0:	e59f008c 	ldr	r0, [pc, #140]	; 2000654 <load_os+0x26c>
 20005c4:	ebffff36 	bl	20002a4 <panic>
 20005c8:	e5963070 	ldr	r3, [r6, #112]	; 0x70
 20005cc:	e3a0200c 	mov	r2, #12
 20005d0:	e0236392 	mla	r3, r2, r3, r6
 20005d4:	e59f203c 	ldr	r2, [pc, #60]	; 2000618 <load_os+0x230>
 20005d8:	e3a00003 	mov	r0, #3
 20005dc:	e5921000 	ldr	r1, [r2]
 20005e0:	e5831010 	str	r1, [r3, #16]
 20005e4:	e59f1024 	ldr	r1, [pc, #36]	; 2000610 <load_os+0x228>
 20005e8:	e5922000 	ldr	r2, [r2]
 20005ec:	e5911000 	ldr	r1, [r1]
 20005f0:	e5830018 	str	r0, [r3, #24]
 20005f4:	e0622001 	rsb	r2, r2, r1
 20005f8:	e5832014 	str	r2, [r3, #20]
 20005fc:	e5963070 	ldr	r3, [r6, #112]	; 0x70
 2000600:	e2833001 	add	r3, r3, #1
 2000604:	e5863070 	str	r3, [r6, #112]	; 0x70
 2000608:	e8bd8ff8 	pop	{r3, r4, r5, r6, r7, r8, r9, sl, fp, pc}
 200060c:	02001754 	andeq	r1, r0, #22020096	; 0x1500000
 2000610:	02001758 	andeq	r1, r0, #23068672	; 0x1600000
 2000614:	02002000 	andeq	r2, r0, #0
 2000618:	02001750 	andeq	r1, r0, #20971520	; 0x1400000
 200061c:	02001319 	andeq	r1, r0, #1677721600	; 0x64000000
 2000620:	02001204 	andeq	r1, r0, #1073741824	; 0x40000000
 2000624:	02001322 	andeq	r1, r0, #-2013265920	; 0x88000000
 2000628:	02002008 	andeq	r2, r0, #8
 200062c:	02001333 	andeq	r1, r0, #-872415232	; 0xcc000000
 2000630:	02002038 	andeq	r2, r0, #56	; 0x38
 2000634:	02001347 	andeq	r1, r0, #469762049	; 0x1c000001
 2000638:	02002044 	andeq	r2, r0, #68	; 0x44
 200063c:	0200135c 	andeq	r1, r0, #1879048193	; 0x70000001
 2000640:	020012d4 	andeq	r1, r0, #1073741837	; 0x4000000d
 2000644:	02001370 	andeq	r1, r0, #-1073741823	; 0xc0000001
 2000648:	0200137b 	andeq	r1, r0, #-335544319	; 0xec000001
 200064c:	02001393 	andeq	r1, r0, #1275068418	; 0x4c000002
 2000650:	020013ad 	andeq	r1, r0, #-1275068414	; 0xb4000002
 2000654:	020013c9 	andeq	r1, r0, #603979779	; 0x24000003

02000658 <load_elf>:
 2000658:	e92d4ff0 	push	{r4, r5, r6, r7, r8, r9, sl, fp, lr}
 200065c:	e1a05000 	mov	r5, r0
 2000660:	e24dd014 	sub	sp, sp, #20
 2000664:	e59f06f8 	ldr	r0, [pc, #1784]	; 2000d64 <load_elf+0x70c>
 2000668:	e1a04001 	mov	r4, r1
 200066c:	eb000231 	bl	2000f38 <printf>
 2000670:	e5952000 	ldr	r2, [r5]
 2000674:	e59f36ec 	ldr	r3, [pc, #1772]	; 2000d68 <load_elf+0x710>
 2000678:	e1520003 	cmp	r2, r3
 200067c:	159f06e8 	ldrne	r0, [pc, #1768]	; 2000d6c <load_elf+0x714>
 2000680:	1a0001ad 	bne	2000d3c <load_elf+0x6e4>
 2000684:	e59f36e4 	ldr	r3, [pc, #1764]	; 2000d70 <load_elf+0x718>
 2000688:	e1d522b8 	ldrh	r2, [r5, #40]	; 0x28
 200068c:	e5933000 	ldr	r3, [r3]
 2000690:	e3530000 	cmp	r3, #0
 2000694:	1a00000c 	bne	20006cc <load_elf+0x74>
 2000698:	e0853002 	add	r3, r5, r2
 200069c:	e593100c 	ldr	r1, [r3, #12]
 20006a0:	e59f66cc 	ldr	r6, [pc, #1740]	; 2000d74 <load_elf+0x71c>
 20006a4:	e3510000 	cmp	r1, #0
 20006a8:	e5861000 	str	r1, [r6]
 20006ac:	059f06c4 	ldreq	r0, [pc, #1732]	; 2000d78 <load_elf+0x720>
 20006b0:	0a0001a1 	beq	2000d3c <load_elf+0x6e4>
 20006b4:	e59f06c0 	ldr	r0, [pc, #1728]	; 2000d7c <load_elf+0x724>
 20006b8:	eb00021e 	bl	2000f38 <printf>
 20006bc:	e5962000 	ldr	r2, [r6]
 20006c0:	e59f36b8 	ldr	r3, [pc, #1720]	; 2000d80 <load_elf+0x728>
 20006c4:	e5832000 	str	r2, [r3]
 20006c8:	ea000006 	b	20006e8 <load_elf+0x90>
 20006cc:	e3530001 	cmp	r3, #1
 20006d0:	e59f369c 	ldr	r3, [pc, #1692]	; 2000d74 <load_elf+0x71c>
 20006d4:	059f06a8 	ldreq	r0, [pc, #1704]	; 2000d84 <load_elf+0x72c>
 20006d8:	05931000 	ldreq	r1, [r3]
 20006dc:	15931000 	ldrne	r1, [r3]
 20006e0:	159f06a0 	ldrne	r0, [pc, #1696]	; 2000d88 <load_elf+0x730>
 20006e4:	eb000213 	bl	2000f38 <printf>
 20006e8:	e1d531b0 	ldrh	r3, [r5, #16]
 20006ec:	e3530001 	cmp	r3, #1
 20006f0:	0a000068 	beq	2000898 <load_elf+0x240>
 20006f4:	e3530002 	cmp	r3, #2
 20006f8:	159f068c 	ldrne	r0, [pc, #1676]	; 2000d8c <load_elf+0x734>
 20006fc:	1a00018e 	bne	2000d3c <load_elf+0x6e4>
 2000700:	e59f766c 	ldr	r7, [pc, #1644]	; 2000d74 <load_elf+0x71c>
 2000704:	e595601c 	ldr	r6, [r5, #28]
 2000708:	e5973000 	ldr	r3, [r7]
 200070c:	e59f067c 	ldr	r0, [pc, #1660]	; 2000d90 <load_elf+0x738>
 2000710:	e5843010 	str	r3, [r4, #16]
 2000714:	e597a000 	ldr	sl, [r7]
 2000718:	e0856006 	add	r6, r5, r6
 200071c:	e1a0100a 	mov	r1, sl
 2000720:	eb000204 	bl	2000f38 <printf>
 2000724:	e3a08000 	mov	r8, #0
 2000728:	ea00003d 	b	2000824 <load_elf+0x1cc>
 200072c:	e5963000 	ldr	r3, [r6]
 2000730:	e3530001 	cmp	r3, #1
 2000734:	1a000038 	bne	200081c <load_elf+0x1c4>
 2000738:	e59f0654 	ldr	r0, [pc, #1620]	; 2000d94 <load_elf+0x73c>
 200073c:	e5961018 	ldr	r1, [r6, #24]
 2000740:	eb0001fc 	bl	2000f38 <printf>
 2000744:	e59f064c 	ldr	r0, [pc, #1612]	; 2000d98 <load_elf+0x740>
 2000748:	e596101c 	ldr	r1, [r6, #28]
 200074c:	eb0001f9 	bl	2000f38 <printf>
 2000750:	e59f0644 	ldr	r0, [pc, #1604]	; 2000d9c <load_elf+0x744>
 2000754:	e596100c 	ldr	r1, [r6, #12]
 2000758:	eb0001f6 	bl	2000f38 <printf>
 200075c:	e3580001 	cmp	r8, #1
 2000760:	da000002 	ble	2000770 <load_elf+0x118>
 2000764:	e59f0634 	ldr	r0, [pc, #1588]	; 2000da0 <load_elf+0x748>
 2000768:	eb0001f2 	bl	2000f38 <printf>
 200076c:	ea00002a 	b	200081c <load_elf+0x1c4>
 2000770:	e5962018 	ldr	r2, [r6, #24]
 2000774:	e5963008 	ldr	r3, [r6, #8]
 2000778:	e3120001 	tst	r2, #1
 200077c:	1584301c 	strne	r3, [r4, #28]
 2000780:	15963014 	ldrne	r3, [r6, #20]
 2000784:	15843024 	strne	r3, [r4, #36]	; 0x24
 2000788:	1a00000a 	bne	20007b8 <load_elf+0x160>
 200078c:	e5843020 	str	r3, [r4, #32]
 2000790:	e5962010 	ldr	r2, [r6, #16]
 2000794:	e594101c 	ldr	r1, [r4, #28]
 2000798:	e5842028 	str	r2, [r4, #40]	; 0x28
 200079c:	e5960014 	ldr	r0, [r6, #20]
 20007a0:	e5962010 	ldr	r2, [r6, #16]
 20007a4:	e083300a 	add	r3, r3, sl
 20007a8:	e0622000 	rsb	r2, r2, r0
 20007ac:	e0613003 	rsb	r3, r1, r3
 20007b0:	e584202c 	str	r2, [r4, #44]	; 0x2c
 20007b4:	e5873000 	str	r3, [r7]
 20007b8:	e5962010 	ldr	r2, [r6, #16]
 20007bc:	e3520000 	cmp	r2, #0
 20007c0:	0a000007 	beq	20007e4 <load_elf+0x18c>
 20007c4:	e5961004 	ldr	r1, [r6, #4]
 20007c8:	e5970000 	ldr	r0, [r7]
 20007cc:	e0851001 	add	r1, r5, r1
 20007d0:	eb0001c7 	bl	2000ef4 <memcpy>
 20007d4:	e59f05c8 	ldr	r0, [pc, #1480]	; 2000da4 <load_elf+0x74c>
 20007d8:	e5971000 	ldr	r1, [r7]
 20007dc:	e5962010 	ldr	r2, [r6, #16]
 20007e0:	eb0001d4 	bl	2000f38 <printf>
 20007e4:	e5961018 	ldr	r1, [r6, #24]
 20007e8:	e2111001 	ands	r1, r1, #1
 20007ec:	1a00000a 	bne	200081c <load_elf+0x1c4>
 20007f0:	e594202c 	ldr	r2, [r4, #44]	; 0x2c
 20007f4:	e3520000 	cmp	r2, #0
 20007f8:	0a000003 	beq	200080c <load_elf+0x1b4>
 20007fc:	e5970000 	ldr	r0, [r7]
 2000800:	e5943028 	ldr	r3, [r4, #40]	; 0x28
 2000804:	e0800003 	add	r0, r0, r3
 2000808:	eb0001c2 	bl	2000f18 <memset>
 200080c:	e5962014 	ldr	r2, [r6, #20]
 2000810:	e5973000 	ldr	r3, [r7]
 2000814:	e0823003 	add	r3, r2, r3
 2000818:	e5873000 	str	r3, [r7]
 200081c:	e2888001 	add	r8, r8, #1
 2000820:	e2866020 	add	r6, r6, #32
 2000824:	e1d532bc 	ldrh	r3, [r5, #44]	; 0x2c
 2000828:	e1580003 	cmp	r8, r3
 200082c:	baffffbe 	blt	200072c <load_elf+0xd4>
 2000830:	e5943020 	ldr	r3, [r4, #32]
 2000834:	e59f2538 	ldr	r2, [pc, #1336]	; 2000d74 <load_elf+0x71c>
 2000838:	e3530000 	cmp	r3, #0
 200083c:	05943024 	ldreq	r3, [r4, #36]	; 0x24
 2000840:	e59f0560 	ldr	r0, [pc, #1376]	; 2000da8 <load_elf+0x750>
 2000844:	0083a00a 	addeq	sl, r3, sl
 2000848:	059f3524 	ldreq	r3, [pc, #1316]	; 2000d74 <load_elf+0x71c>
 200084c:	0583a000 	streq	sl, [r3]
 2000850:	e5923000 	ldr	r3, [r2]
 2000854:	e2833fff 	add	r3, r3, #1020	; 0x3fc
 2000858:	e2833003 	add	r3, r3, #3
 200085c:	e3c33fff 	bic	r3, r3, #1020	; 0x3fc
 2000860:	e3c33003 	bic	r3, r3, #3
 2000864:	e5823000 	str	r3, [r2]
 2000868:	e5941010 	ldr	r1, [r4, #16]
 200086c:	e0611003 	rsb	r1, r1, r3
 2000870:	e5841014 	str	r1, [r4, #20]
 2000874:	e5952018 	ldr	r2, [r5, #24]
 2000878:	e5842018 	str	r2, [r4, #24]
 200087c:	eb0001ad 	bl	2000f38 <printf>
 2000880:	e5943014 	ldr	r3, [r4, #20]
 2000884:	e3530000 	cmp	r3, #0
 2000888:	1a00012e 	bne	2000d48 <load_elf+0x6f0>
 200088c:	e59f0518 	ldr	r0, [pc, #1304]	; 2000dac <load_elf+0x754>
 2000890:	ebfffe83 	bl	20002a4 <panic>
 2000894:	ea00012b 	b	2000d48 <load_elf+0x6f0>
 2000898:	e59f84d4 	ldr	r8, [pc, #1236]	; 2000d74 <load_elf+0x71c>
 200089c:	e59f350c 	ldr	r3, [pc, #1292]	; 2000db0 <load_elf+0x758>
 20008a0:	e3a07000 	mov	r7, #0
 20008a4:	e5982000 	ldr	r2, [r8]
 20008a8:	e5837000 	str	r7, [r3]
 20008ac:	e5956020 	ldr	r6, [r5, #32]
 20008b0:	e5842010 	str	r2, [r4, #16]
 20008b4:	e59f04d4 	ldr	r0, [pc, #1236]	; 2000d90 <load_elf+0x738>
 20008b8:	e5981000 	ldr	r1, [r8]
 20008bc:	e283b004 	add	fp, r3, #4
 20008c0:	e0856006 	add	r6, r5, r6
 20008c4:	eb00019b 	bl	2000f38 <printf>
 20008c8:	e1a09007 	mov	r9, r7
 20008cc:	e58d7000 	str	r7, [sp]
 20008d0:	e1a0a005 	mov	sl, r5
 20008d4:	ea00005f 	b	2000a58 <load_elf+0x400>
 20008d8:	e3a00000 	mov	r0, #0
 20008dc:	e78b0007 	str	r0, [fp, r7]
 20008e0:	e5963004 	ldr	r3, [r6, #4]
 20008e4:	e3530001 	cmp	r3, #1
 20008e8:	1a00002c 	bne	20009a0 <load_elf+0x348>
 20008ec:	e59f04c0 	ldr	r0, [pc, #1216]	; 2000db4 <load_elf+0x75c>
 20008f0:	e596100c 	ldr	r1, [r6, #12]
 20008f4:	eb00018f 	bl	2000f38 <printf>
 20008f8:	e59f04b8 	ldr	r0, [pc, #1208]	; 2000db8 <load_elf+0x760>
 20008fc:	e5961014 	ldr	r1, [r6, #20]
 2000900:	eb00018c 	bl	2000f38 <printf>
 2000904:	e59f04b0 	ldr	r0, [pc, #1200]	; 2000dbc <load_elf+0x764>
 2000908:	e5961010 	ldr	r1, [r6, #16]
 200090c:	eb000189 	bl	2000f38 <printf>
 2000910:	e59f04a8 	ldr	r0, [pc, #1192]	; 2000dc0 <load_elf+0x768>
 2000914:	e5961008 	ldr	r1, [r6, #8]
 2000918:	eb000186 	bl	2000f38 <printf>
 200091c:	e5963008 	ldr	r3, [r6, #8]
 2000920:	e2033007 	and	r3, r3, #7
 2000924:	e3530003 	cmp	r3, #3
 2000928:	0a000007 	beq	200094c <load_elf+0x2f4>
 200092c:	e3530006 	cmp	r3, #6
 2000930:	0a000002 	beq	2000940 <load_elf+0x2e8>
 2000934:	e3530002 	cmp	r3, #2
 2000938:	1a000043 	bne	2000a4c <load_elf+0x3f4>
 200093c:	ea000008 	b	2000964 <load_elf+0x30c>
 2000940:	e5983000 	ldr	r3, [r8]
 2000944:	e584301c 	str	r3, [r4, #28]
 2000948:	ea000005 	b	2000964 <load_elf+0x30c>
 200094c:	e5943020 	ldr	r3, [r4, #32]
 2000950:	e3530000 	cmp	r3, #0
 2000954:	0596200c 	ldreq	r2, [r6, #12]
 2000958:	05983000 	ldreq	r3, [r8]
 200095c:	00823003 	addeq	r3, r2, r3
 2000960:	05843020 	streq	r3, [r4, #32]
 2000964:	e5983000 	ldr	r3, [r8]
 2000968:	e596500c 	ldr	r5, [r6, #12]
 200096c:	e5961010 	ldr	r1, [r6, #16]
 2000970:	e0855003 	add	r5, r5, r3
 2000974:	e08a1001 	add	r1, sl, r1
 2000978:	e5962014 	ldr	r2, [r6, #20]
 200097c:	e1a00005 	mov	r0, r5
 2000980:	eb00015b 	bl	2000ef4 <memcpy>
 2000984:	e1a01005 	mov	r1, r5
 2000988:	e59f0414 	ldr	r0, [pc, #1044]	; 2000da4 <load_elf+0x74c>
 200098c:	e5962014 	ldr	r2, [r6, #20]
 2000990:	eb000168 	bl	2000f38 <printf>
 2000994:	e59f1428 	ldr	r1, [pc, #1064]	; 2000dc4 <load_elf+0x76c>
 2000998:	e7815007 	str	r5, [r1, r7]
 200099c:	ea00002a 	b	2000a4c <load_elf+0x3f4>
 20009a0:	e3530008 	cmp	r3, #8
 20009a4:	1a00000c 	bne	20009dc <load_elf+0x384>
 20009a8:	e5963014 	ldr	r3, [r6, #20]
 20009ac:	e3a01000 	mov	r1, #0
 20009b0:	e584302c 	str	r3, [r4, #44]	; 0x2c
 20009b4:	e596000c 	ldr	r0, [r6, #12]
 20009b8:	e5983000 	ldr	r3, [r8]
 20009bc:	e5962014 	ldr	r2, [r6, #20]
 20009c0:	e0803003 	add	r3, r0, r3
 20009c4:	e1a00003 	mov	r0, r3
 20009c8:	e58d3000 	str	r3, [sp]
 20009cc:	eb000151 	bl	2000f18 <memset>
 20009d0:	e59d2000 	ldr	r2, [sp]
 20009d4:	e78b2007 	str	r2, [fp, r7]
 20009d8:	ea00001b 	b	2000a4c <load_elf+0x3f4>
 20009dc:	e3530002 	cmp	r3, #2
 20009e0:	1a000010 	bne	2000a28 <load_elf+0x3d0>
 20009e4:	e59f03dc 	ldr	r0, [pc, #988]	; 2000dc8 <load_elf+0x770>
 20009e8:	e5962018 	ldr	r2, [r6, #24]
 20009ec:	e1a01009 	mov	r1, r9
 20009f0:	eb000150 	bl	2000f38 <printf>
 20009f4:	e59f03b4 	ldr	r0, [pc, #948]	; 2000db0 <load_elf+0x758>
 20009f8:	e5963010 	ldr	r3, [r6, #16]
 20009fc:	e5902000 	ldr	r2, [r0]
 2000a00:	e08a3003 	add	r3, sl, r3
 2000a04:	e3520000 	cmp	r2, #0
 2000a08:	e78b3007 	str	r3, [fp, r7]
 2000a0c:	0a000001 	beq	2000a18 <load_elf+0x3c0>
 2000a10:	e59f03b4 	ldr	r0, [pc, #948]	; 2000dcc <load_elf+0x774>
 2000a14:	ebfffe22 	bl	20002a4 <panic>
 2000a18:	e5963018 	ldr	r3, [r6, #24]
 2000a1c:	e59f138c 	ldr	r1, [pc, #908]	; 2000db0 <load_elf+0x758>
 2000a20:	e5813000 	str	r3, [r1]
 2000a24:	ea000008 	b	2000a4c <load_elf+0x3f4>
 2000a28:	e3530003 	cmp	r3, #3
 2000a2c:	1a000006 	bne	2000a4c <load_elf+0x3f4>
 2000a30:	e5963010 	ldr	r3, [r6, #16]
 2000a34:	e59f0394 	ldr	r0, [pc, #916]	; 2000dd0 <load_elf+0x778>
 2000a38:	e08a3003 	add	r3, sl, r3
 2000a3c:	e1a02003 	mov	r2, r3
 2000a40:	e1a01009 	mov	r1, r9
 2000a44:	e78b3007 	str	r3, [fp, r7]
 2000a48:	eb00013a 	bl	2000f38 <printf>
 2000a4c:	e2899001 	add	r9, r9, #1
 2000a50:	e2866028 	add	r6, r6, #40	; 0x28
 2000a54:	e2877004 	add	r7, r7, #4
 2000a58:	e1da33b0 	ldrh	r3, [sl, #48]	; 0x30
 2000a5c:	e1590003 	cmp	r9, r3
 2000a60:	baffff9c 	blt	20008d8 <load_elf+0x280>
 2000a64:	e594102c 	ldr	r1, [r4, #44]	; 0x2c
 2000a68:	e59d2000 	ldr	r2, [sp]
 2000a6c:	e2811fff 	add	r1, r1, #1020	; 0x3fc
 2000a70:	e2811003 	add	r1, r1, #3
 2000a74:	e59d0000 	ldr	r0, [sp]
 2000a78:	e5943020 	ldr	r3, [r4, #32]
 2000a7c:	e0811002 	add	r1, r1, r2
 2000a80:	e594201c 	ldr	r2, [r4, #28]
 2000a84:	e59f62e8 	ldr	r6, [pc, #744]	; 2000d74 <load_elf+0x71c>
 2000a88:	e3c11fff 	bic	r1, r1, #1020	; 0x3fc
 2000a8c:	e3c11003 	bic	r1, r1, #3
 2000a90:	e0622003 	rsb	r2, r2, r3
 2000a94:	e0633000 	rsb	r3, r3, r0
 2000a98:	e5842024 	str	r2, [r4, #36]	; 0x24
 2000a9c:	e5843028 	str	r3, [r4, #40]	; 0x28
 2000aa0:	e5861000 	str	r1, [r6]
 2000aa4:	e59f0328 	ldr	r0, [pc, #808]	; 2000dd4 <load_elf+0x77c>
 2000aa8:	e594201c 	ldr	r2, [r4, #28]
 2000aac:	eb000121 	bl	2000f38 <printf>
 2000ab0:	e5961000 	ldr	r1, [r6]
 2000ab4:	e594301c 	ldr	r3, [r4, #28]
 2000ab8:	e5942010 	ldr	r2, [r4, #16]
 2000abc:	e0631001 	rsb	r1, r3, r1
 2000ac0:	e5841014 	str	r1, [r4, #20]
 2000ac4:	e59a3018 	ldr	r3, [sl, #24]
 2000ac8:	e59f02d8 	ldr	r0, [pc, #728]	; 2000da8 <load_elf+0x750>
 2000acc:	e0822003 	add	r2, r2, r3
 2000ad0:	e5842018 	str	r2, [r4, #24]
 2000ad4:	eb000117 	bl	2000f38 <printf>
 2000ad8:	e59a6020 	ldr	r6, [sl, #32]
 2000adc:	e3a01000 	mov	r1, #0
 2000ae0:	e1a0500a 	mov	r5, sl
 2000ae4:	e58d1004 	str	r1, [sp, #4]
 2000ae8:	e08a6006 	add	r6, sl, r6
 2000aec:	e59f72bc 	ldr	r7, [pc, #700]	; 2000db0 <load_elf+0x758>
 2000af0:	e58d4000 	str	r4, [sp]
 2000af4:	ea00008b 	b	2000d28 <load_elf+0x6d0>
 2000af8:	e5963004 	ldr	r3, [r6, #4]
 2000afc:	e3530009 	cmp	r3, #9
 2000b00:	13530004 	cmpne	r3, #4
 2000b04:	1a000083 	bne	2000d18 <load_elf+0x6c0>
 2000b08:	e59f02c8 	ldr	r0, [pc, #712]	; 2000dd8 <load_elf+0x780>
 2000b0c:	eb000109 	bl	2000f38 <printf>
 2000b10:	e5963024 	ldr	r3, [r6, #36]	; 0x24
 2000b14:	e3530000 	cmp	r3, #0
 2000b18:	0a00007e 	beq	2000d18 <load_elf+0x6c0>
 2000b1c:	e596301c 	ldr	r3, [r6, #28]
 2000b20:	e0873103 	add	r3, r7, r3, lsl #2
 2000b24:	e5933004 	ldr	r3, [r3, #4]
 2000b28:	e3530000 	cmp	r3, #0
 2000b2c:	e58d3008 	str	r3, [sp, #8]
 2000b30:	0a000073 	beq	2000d04 <load_elf+0x6ac>
 2000b34:	e5963018 	ldr	r3, [r6, #24]
 2000b38:	e0873103 	add	r3, r7, r3, lsl #2
 2000b3c:	e5934004 	ldr	r4, [r3, #4]
 2000b40:	e3540000 	cmp	r4, #0
 2000b44:	0a00006e 	beq	2000d04 <load_elf+0x6ac>
 2000b48:	e5973000 	ldr	r3, [r7]
 2000b4c:	e0873103 	add	r3, r7, r3, lsl #2
 2000b50:	e5939004 	ldr	r9, [r3, #4]
 2000b54:	e3590000 	cmp	r9, #0
 2000b58:	0a000069 	beq	2000d04 <load_elf+0x6ac>
 2000b5c:	e59f0278 	ldr	r0, [pc, #632]	; 2000ddc <load_elf+0x784>
 2000b60:	e1a01009 	mov	r1, r9
 2000b64:	eb0000f3 	bl	2000f38 <printf>
 2000b68:	e5960014 	ldr	r0, [r6, #20]
 2000b6c:	e5961024 	ldr	r1, [r6, #36]	; 0x24
 2000b70:	eb00015d 	bl	20010ec <__aeabi_uidiv>
 2000b74:	e58d000c 	str	r0, [sp, #12]
 2000b78:	e5963004 	ldr	r3, [r6, #4]
 2000b7c:	e3530004 	cmp	r3, #4
 2000b80:	0a000034 	beq	2000c58 <load_elf+0x600>
 2000b84:	e3530009 	cmp	r3, #9
 2000b88:	1a00005d 	bne	2000d04 <load_elf+0x6ac>
 2000b8c:	e596a010 	ldr	sl, [r6, #16]
 2000b90:	e3a08000 	mov	r8, #0
 2000b94:	e085a00a 	add	sl, r5, sl
 2000b98:	ea000029 	b	2000c44 <load_elf+0x5ec>
 2000b9c:	e59ab004 	ldr	fp, [sl, #4]
 2000ba0:	e1a0b42b 	lsr	fp, fp, #8
 2000ba4:	e794120b 	ldr	r1, [r4, fp, lsl #4]
 2000ba8:	e084b20b 	add	fp, r4, fp, lsl #4
 2000bac:	e0891001 	add	r1, r9, r1
 2000bb0:	eb0000e0 	bl	2000f38 <printf>
 2000bb4:	e1db30be 	ldrh	r3, [fp, #14]
 2000bb8:	e59f0220 	ldr	r0, [pc, #544]	; 2000de0 <load_elf+0x788>
 2000bbc:	e3530000 	cmp	r3, #0
 2000bc0:	0a000009 	beq	2000bec <load_elf+0x594>
 2000bc4:	e0873103 	add	r3, r7, r3, lsl #2
 2000bc8:	e5933004 	ldr	r3, [r3, #4]
 2000bcc:	e59b1004 	ldr	r1, [fp, #4]
 2000bd0:	e1a0000a 	mov	r0, sl
 2000bd4:	e0831001 	add	r1, r3, r1
 2000bd8:	e59d2008 	ldr	r2, [sp, #8]
 2000bdc:	ebfffd7f 	bl	20001e0 <relocate_rel>
 2000be0:	e3500000 	cmp	r0, #0
 2000be4:	0a000014 	beq	2000c3c <load_elf+0x5e4>
 2000be8:	ea000045 	b	2000d04 <load_elf+0x6ac>
 2000bec:	e5db300c 	ldrb	r3, [fp, #12]
 2000bf0:	e1a02223 	lsr	r2, r3, #4
 2000bf4:	e3520002 	cmp	r2, #2
 2000bf8:	0a00000c 	beq	2000c30 <load_elf+0x5d8>
 2000bfc:	e5db100d 	ldrb	r1, [fp, #13]
 2000c00:	e59b2008 	ldr	r2, [fp, #8]
 2000c04:	e0833001 	add	r3, r3, r1
 2000c08:	e0833002 	add	r3, r3, r2
 2000c0c:	e3530000 	cmp	r3, #0
 2000c10:	1a000001 	bne	2000c1c <load_elf+0x5c4>
 2000c14:	eb0000c7 	bl	2000f38 <printf>
 2000c18:	ea000007 	b	2000c3c <load_elf+0x5e4>
 2000c1c:	e59d4000 	ldr	r4, [sp]
 2000c20:	e1a01008 	mov	r1, r8
 2000c24:	e1a0200b 	mov	r2, fp
 2000c28:	e59f01b4 	ldr	r0, [pc, #436]	; 2000de4 <load_elf+0x78c>
 2000c2c:	ea00002a 	b	2000cdc <load_elf+0x684>
 2000c30:	e1a01008 	mov	r1, r8
 2000c34:	e59f01ac 	ldr	r0, [pc, #428]	; 2000de8 <load_elf+0x790>
 2000c38:	eb0000be 	bl	2000f38 <printf>
 2000c3c:	e28aa008 	add	sl, sl, #8
 2000c40:	e2888001 	add	r8, r8, #1
 2000c44:	e59d200c 	ldr	r2, [sp, #12]
 2000c48:	e59f019c 	ldr	r0, [pc, #412]	; 2000dec <load_elf+0x794>
 2000c4c:	e1580002 	cmp	r8, r2
 2000c50:	baffffd1 	blt	2000b9c <load_elf+0x544>
 2000c54:	ea00002f 	b	2000d18 <load_elf+0x6c0>
 2000c58:	e596a010 	ldr	sl, [r6, #16]
 2000c5c:	e3a08000 	mov	r8, #0
 2000c60:	e085a00a 	add	sl, r5, sl
 2000c64:	ea000021 	b	2000cf0 <load_elf+0x698>
 2000c68:	e59ab004 	ldr	fp, [sl, #4]
 2000c6c:	e1a0b42b 	lsr	fp, fp, #8
 2000c70:	e794120b 	ldr	r1, [r4, fp, lsl #4]
 2000c74:	e084b20b 	add	fp, r4, fp, lsl #4
 2000c78:	e0891001 	add	r1, r9, r1
 2000c7c:	eb0000ad 	bl	2000f38 <printf>
 2000c80:	e1db30be 	ldrh	r3, [fp, #14]
 2000c84:	e1a01008 	mov	r1, r8
 2000c88:	e3530000 	cmp	r3, #0
 2000c8c:	e59f015c 	ldr	r0, [pc, #348]	; 2000df0 <load_elf+0x798>
 2000c90:	0a000009 	beq	2000cbc <load_elf+0x664>
 2000c94:	e0873103 	add	r3, r7, r3, lsl #2
 2000c98:	e5933004 	ldr	r3, [r3, #4]
 2000c9c:	e59b1004 	ldr	r1, [fp, #4]
 2000ca0:	e1a0000a 	mov	r0, sl
 2000ca4:	e0831001 	add	r1, r3, r1
 2000ca8:	e59d2008 	ldr	r2, [sp, #8]
 2000cac:	ebfffd45 	bl	20001c8 <relocate_rela>
 2000cb0:	e3500000 	cmp	r0, #0
 2000cb4:	0a00000b 	beq	2000ce8 <load_elf+0x690>
 2000cb8:	ea000011 	b	2000d04 <load_elf+0x6ac>
 2000cbc:	e5db300c 	ldrb	r3, [fp, #12]
 2000cc0:	e1a03223 	lsr	r3, r3, #4
 2000cc4:	e3530002 	cmp	r3, #2
 2000cc8:	0a000005 	beq	2000ce4 <load_elf+0x68c>
 2000ccc:	e59d4000 	ldr	r4, [sp]
 2000cd0:	e59f011c 	ldr	r0, [pc, #284]	; 2000df4 <load_elf+0x79c>
 2000cd4:	e1a01008 	mov	r1, r8
 2000cd8:	e1a0200b 	mov	r2, fp
 2000cdc:	eb000095 	bl	2000f38 <printf>
 2000ce0:	ea000008 	b	2000d08 <load_elf+0x6b0>
 2000ce4:	eb000093 	bl	2000f38 <printf>
 2000ce8:	e28aa00c 	add	sl, sl, #12
 2000cec:	e2888001 	add	r8, r8, #1
 2000cf0:	e59d300c 	ldr	r3, [sp, #12]
 2000cf4:	e59f00f0 	ldr	r0, [pc, #240]	; 2000dec <load_elf+0x794>
 2000cf8:	e1580003 	cmp	r8, r3
 2000cfc:	baffffd9 	blt	2000c68 <load_elf+0x610>
 2000d00:	ea000004 	b	2000d18 <load_elf+0x6c0>
 2000d04:	e59d4000 	ldr	r4, [sp]
 2000d08:	e1a01004 	mov	r1, r4
 2000d0c:	e59f00e4 	ldr	r0, [pc, #228]	; 2000df8 <load_elf+0x7a0>
 2000d10:	eb000088 	bl	2000f38 <printf>
 2000d14:	ea000009 	b	2000d40 <load_elf+0x6e8>
 2000d18:	e59d0004 	ldr	r0, [sp, #4]
 2000d1c:	e2866028 	add	r6, r6, #40	; 0x28
 2000d20:	e2800001 	add	r0, r0, #1
 2000d24:	e58d0004 	str	r0, [sp, #4]
 2000d28:	e1d533b0 	ldrh	r3, [r5, #48]	; 0x30
 2000d2c:	e59d1004 	ldr	r1, [sp, #4]
 2000d30:	e1510003 	cmp	r1, r3
 2000d34:	baffff6f 	blt	2000af8 <load_elf+0x4a0>
 2000d38:	ea000002 	b	2000d48 <load_elf+0x6f0>
 2000d3c:	eb00007d 	bl	2000f38 <printf>
 2000d40:	e3e00000 	mvn	r0, #0
 2000d44:	ea000004 	b	2000d5c <load_elf+0x704>
 2000d48:	e59f3020 	ldr	r3, [pc, #32]	; 2000d70 <load_elf+0x718>
 2000d4c:	e3a00000 	mov	r0, #0
 2000d50:	e5932000 	ldr	r2, [r3]
 2000d54:	e2822001 	add	r2, r2, #1
 2000d58:	e5832000 	str	r2, [r3]
 2000d5c:	e28dd014 	add	sp, sp, #20
 2000d60:	e8bd8ff0 	pop	{r4, r5, r6, r7, r8, r9, sl, fp, pc}
 2000d64:	020013dd 	andeq	r1, r0, #1946157059	; 0x74000003
 2000d68:	464c457f 	undefined instruction 0x464c457f
 2000d6c:	020013e8 	andeq	r1, r0, #-1610612733	; 0xa0000003
 2000d70:	02001754 	andeq	r1, r0, #22020096	; 0x1500000
 2000d74:	02001758 	andeq	r1, r0, #23068672	; 0x1600000
 2000d78:	020013fb 	andeq	r1, r0, #-335544317	; 0xec000003
 2000d7c:	02001411 	andeq	r1, r0, #285212672	; 0x11000000
 2000d80:	02001750 	andeq	r1, r0, #20971520	; 0x1400000
 2000d84:	02001422 	andeq	r1, r0, #570425344	; 0x22000000
 2000d88:	02001433 	andeq	r1, r0, #855638016	; 0x33000000
 2000d8c:	02001654 	andeq	r1, r0, #88080384	; 0x5400000
 2000d90:	02001442 	andeq	r1, r0, #1107296256	; 0x42000000
 2000d94:	02001451 	andeq	r1, r0, #1358954496	; 0x51000000
 2000d98:	0200145d 	andeq	r1, r0, #1560281088	; 0x5d000000
 2000d9c:	02001469 	andeq	r1, r0, #1761607680	; 0x69000000
 2000da0:	02001475 	andeq	r1, r0, #1962934272	; 0x75000000
 2000da4:	0200148a 	andeq	r1, r0, #-1979711488	; 0x8a000000
 2000da8:	020014a4 	andeq	r1, r0, #-1543503872	; 0xa4000000
 2000dac:	020014be 	andeq	r1, r0, #-1107296256	; 0xbe000000
 2000db0:	020016cc 	andeq	r1, r0, #213909504	; 0xcc00000
 2000db4:	020014d0 	andeq	r1, r0, #-805306368	; 0xd0000000
 2000db8:	020014dc 	andeq	r1, r0, #-603979776	; 0xdc000000
 2000dbc:	020014e8 	andeq	r1, r0, #-402653184	; 0xe8000000
 2000dc0:	020014f6 	andeq	r1, r0, #-167772160	; 0xf6000000
 2000dc4:	020016d0 	andeq	r1, r0, #218103808	; 0xd000000
 2000dc8:	02001503 	andeq	r1, r0, #12582912	; 0xc00000
 2000dcc:	02001522 	andeq	r1, r0, #142606336	; 0x8800000
 2000dd0:	02001539 	andeq	r1, r0, #239075328	; 0xe400000
 2000dd4:	02001558 	andeq	r1, r0, #369098752	; 0x16000000
 2000dd8:	02001577 	andeq	r1, r0, #499122176	; 0x1dc00000
 2000ddc:	02001589 	andeq	r1, r0, #574619648	; 0x22400000
 2000de0:	02001594 	andeq	r1, r0, #620756992	; 0x25000000
 2000de4:	020015a3 	andeq	r1, r0, #683671552	; 0x28c00000
 2000de8:	020015c9 	andeq	r1, r0, #843055104	; 0x32400000
 2000dec:	02001297 	andeq	r1, r0, #1879048201	; 0x70000009
 2000df0:	02001613 	andeq	r1, r0, #19922944	; 0x1300000
 2000df4:	020015ec 	andeq	r1, r0, #989855744	; 0x3b000000
 2000df8:	02001637 	andeq	r1, r0, #57671680	; 0x3700000

02000dfc <splash>:
 2000dfc:	e12fff1e 	bx	lr

02000e00 <atol>:
 2000e00:	e92d4010 	push	{r4, lr}
 2000e04:	e1a02000 	mov	r2, r0
 2000e08:	ea000000 	b	2000e10 <atol+0x10>
 2000e0c:	e2822001 	add	r2, r2, #1
 2000e10:	e5d23000 	ldrb	r3, [r2]
 2000e14:	e3530020 	cmp	r3, #32
 2000e18:	0afffffb 	beq	2000e0c <atol+0xc>
 2000e1c:	e3a03000 	mov	r3, #0
 2000e20:	e1a00003 	mov	r0, r3
 2000e24:	e3a0c00a 	mov	ip, #10
 2000e28:	ea000000 	b	2000e30 <atol+0x30>
 2000e2c:	e020109c 	mla	r0, ip, r0, r1
 2000e30:	e7d21003 	ldrb	r1, [r2, r3]
 2000e34:	e2833001 	add	r3, r3, #1
 2000e38:	e2411030 	sub	r1, r1, #48	; 0x30
 2000e3c:	e20140ff 	and	r4, r1, #255	; 0xff
 2000e40:	e3540009 	cmp	r4, #9
 2000e44:	9afffff8 	bls	2000e2c <atol+0x2c>
 2000e48:	e8bd8010 	pop	{r4, pc}

02000e4c <strlcpy>:
 2000e4c:	e3520000 	cmp	r2, #0
 2000e50:	01a03001 	moveq	r3, r1
 2000e54:	0a00000e 	beq	2000e94 <strlcpy+0x48>
 2000e58:	e2522001 	subs	r2, r2, #1
 2000e5c:	01a03001 	moveq	r3, r1
 2000e60:	0a000009 	beq	2000e8c <strlcpy+0x40>
 2000e64:	e1a03001 	mov	r3, r1
 2000e68:	e4d3c001 	ldrb	ip, [r3], #1
 2000e6c:	e35c0000 	cmp	ip, #0
 2000e70:	e4c0c001 	strb	ip, [r0], #1
 2000e74:	0a000002 	beq	2000e84 <strlcpy+0x38>
 2000e78:	e2522001 	subs	r2, r2, #1
 2000e7c:	1afffff9 	bne	2000e68 <strlcpy+0x1c>
 2000e80:	ea000001 	b	2000e8c <strlcpy+0x40>
 2000e84:	e3520000 	cmp	r2, #0
 2000e88:	1a000004 	bne	2000ea0 <strlcpy+0x54>
 2000e8c:	e3a02000 	mov	r2, #0
 2000e90:	e5c02000 	strb	r2, [r0]
 2000e94:	e4d32001 	ldrb	r2, [r3], #1
 2000e98:	e3520000 	cmp	r2, #0
 2000e9c:	1afffffc 	bne	2000e94 <strlcpy+0x48>
 2000ea0:	e1e01001 	mvn	r1, r1
 2000ea4:	e0830001 	add	r0, r3, r1
 2000ea8:	e12fff1e 	bx	lr

02000eac <strncmp>:
 2000eac:	e92d4010 	push	{r4, lr}
 2000eb0:	e3a03000 	mov	r3, #0
 2000eb4:	ea000008 	b	2000edc <strncmp+0x30>
 2000eb8:	e7d04003 	ldrb	r4, [r0, r3]
 2000ebc:	e7d1c003 	ldrb	ip, [r1, r3]
 2000ec0:	e2833001 	add	r3, r3, #1
 2000ec4:	e06cc004 	rsb	ip, ip, r4
 2000ec8:	e21cc0ff 	ands	ip, ip, #255	; 0xff
 2000ecc:	1a000005 	bne	2000ee8 <strncmp+0x3c>
 2000ed0:	e3540000 	cmp	r4, #0
 2000ed4:	0a000003 	beq	2000ee8 <strncmp+0x3c>
 2000ed8:	e2422001 	sub	r2, r2, #1
 2000edc:	e3520000 	cmp	r2, #0
 2000ee0:	1afffff4 	bne	2000eb8 <strncmp+0xc>
 2000ee4:	e1a0c002 	mov	ip, r2
 2000ee8:	e1a00c0c 	lsl	r0, ip, #24
 2000eec:	e1a00c40 	asr	r0, r0, #24
 2000ef0:	e8bd8010 	pop	{r4, pc}

02000ef4 <memcpy>:
 2000ef4:	e3a03000 	mov	r3, #0
 2000ef8:	ea000003 	b	2000f0c <memcpy+0x18>
 2000efc:	e7d1c003 	ldrb	ip, [r1, r3]
 2000f00:	e2422001 	sub	r2, r2, #1
 2000f04:	e7c0c003 	strb	ip, [r0, r3]
 2000f08:	e2833001 	add	r3, r3, #1
 2000f0c:	e3520000 	cmp	r2, #0
 2000f10:	1afffff9 	bne	2000efc <memcpy+0x8>
 2000f14:	e12fff1e 	bx	lr

02000f18 <memset>:
 2000f18:	e3a03000 	mov	r3, #0
 2000f1c:	ea000002 	b	2000f2c <memset+0x14>
 2000f20:	e7c01003 	strb	r1, [r0, r3]
 2000f24:	e2422001 	sub	r2, r2, #1
 2000f28:	e2833001 	add	r3, r3, #1
 2000f2c:	e3520000 	cmp	r2, #0
 2000f30:	1afffffa 	bne	2000f20 <memset+0x8>
 2000f34:	e12fff1e 	bx	lr

02000f38 <printf>:
 2000f38:	e92d000f 	push	{r0, r1, r2, r3}
 2000f3c:	e92d4ff0 	push	{r4, r5, r6, r7, r8, r9, sl, fp, lr}
 2000f40:	e24dd014 	sub	sp, sp, #20
 2000f44:	e28d303c 	add	r3, sp, #60	; 0x3c
 2000f48:	e1a0700d 	mov	r7, sp
 2000f4c:	e58d300c 	str	r3, [sp, #12]
 2000f50:	e59d5038 	ldr	r5, [sp, #56]	; 0x38
 2000f54:	e59fb188 	ldr	fp, [pc, #392]	; 20010e4 <printf+0x1ac>
 2000f58:	e28d9001 	add	r9, sp, #1
 2000f5c:	e59f8184 	ldr	r8, [pc, #388]	; 20010e8 <printf+0x1b0>
 2000f60:	e3a0a030 	mov	sl, #48	; 0x30
 2000f64:	ea000057 	b	20010c8 <printf+0x190>
 2000f68:	e3540025 	cmp	r4, #37	; 0x25
 2000f6c:	e2855001 	add	r5, r5, #1
 2000f70:	1a00004e 	bne	20010b0 <printf+0x178>
 2000f74:	e4d54001 	ldrb	r4, [r5], #1
 2000f78:	e354006c 	cmp	r4, #108	; 0x6c
 2000f7c:	04d54001 	ldrbeq	r4, [r5], #1
 2000f80:	e3540073 	cmp	r4, #115	; 0x73
 2000f84:	0a00000f 	beq	2000fc8 <printf+0x90>
 2000f88:	ca000004 	bgt	2000fa0 <printf+0x68>
 2000f8c:	e3540063 	cmp	r4, #99	; 0x63
 2000f90:	0a000007 	beq	2000fb4 <printf+0x7c>
 2000f94:	e3540064 	cmp	r4, #100	; 0x64
 2000f98:	1a000044 	bne	20010b0 <printf+0x178>
 2000f9c:	ea000017 	b	2001000 <printf+0xc8>
 2000fa0:	e3540075 	cmp	r4, #117	; 0x75
 2000fa4:	0a000016 	beq	2001004 <printf+0xcc>
 2000fa8:	e3540078 	cmp	r4, #120	; 0x78
 2000fac:	1a00003f 	bne	20010b0 <printf+0x178>
 2000fb0:	ea000013 	b	2001004 <printf+0xcc>
 2000fb4:	e59d300c 	ldr	r3, [sp, #12]
 2000fb8:	e2832004 	add	r2, r3, #4
 2000fbc:	e58d200c 	str	r2, [sp, #12]
 2000fc0:	e5930000 	ldr	r0, [r3]
 2000fc4:	ea00003e 	b	20010c4 <printf+0x18c>
 2000fc8:	e59d300c 	ldr	r3, [sp, #12]
 2000fcc:	e3a06000 	mov	r6, #0
 2000fd0:	e2832004 	add	r2, r3, #4
 2000fd4:	e58d200c 	str	r2, [sp, #12]
 2000fd8:	e5934000 	ldr	r4, [r3]
 2000fdc:	e1540006 	cmp	r4, r6
 2000fe0:	01a0400b 	moveq	r4, fp
 2000fe4:	ea000000 	b	2000fec <printf+0xb4>
 2000fe8:	ebfffc62 	bl	2000178 <debug_putc>
 2000fec:	e7d40006 	ldrb	r0, [r4, r6]
 2000ff0:	e2866001 	add	r6, r6, #1
 2000ff4:	e3500000 	cmp	r0, #0
 2000ff8:	1afffffa 	bne	2000fe8 <printf+0xb0>
 2000ffc:	ea000031 	b	20010c8 <printf+0x190>
 2001000:	e3a04075 	mov	r4, #117	; 0x75
 2001004:	e59d300c 	ldr	r3, [sp, #12]
 2001008:	e3540075 	cmp	r4, #117	; 0x75
 200100c:	e2832004 	add	r2, r3, #4
 2001010:	e58d200c 	str	r2, [sp, #12]
 2001014:	e5936000 	ldr	r6, [r3]
 2001018:	12871009 	addne	r1, r7, #9
 200101c:	11a03009 	movne	r3, r9
 2001020:	13a02000 	movne	r2, #0
 2001024:	1a00000b 	bne	2001058 <printf+0x120>
 2001028:	e1a0400d 	mov	r4, sp
 200102c:	e1a00006 	mov	r0, r6
 2001030:	e3a0100a 	mov	r1, #10
 2001034:	eb00006b 	bl	20011e8 <__aeabi_uidivmod>
 2001038:	e7d83001 	ldrb	r3, [r8, r1]
 200103c:	e1a00006 	mov	r0, r6
 2001040:	e3a0100a 	mov	r1, #10
 2001044:	e4c43001 	strb	r3, [r4], #1
 2001048:	eb000027 	bl	20010ec <__aeabi_uidiv>
 200104c:	e2506000 	subs	r6, r0, #0
 2001050:	1afffff5 	bne	200102c <printf+0xf4>
 2001054:	ea000011 	b	20010a0 <printf+0x168>
 2001058:	e3520000 	cmp	r2, #0
 200105c:	1543a001 	strbne	sl, [r3, #-1]
 2001060:	11a04003 	movne	r4, r3
 2001064:	13a02001 	movne	r2, #1
 2001068:	1a000006 	bne	2001088 <printf+0x150>
 200106c:	e206200f 	and	r2, r6, #15
 2001070:	e7d82002 	ldrb	r2, [r8, r2]
 2001074:	e1b06226 	lsrs	r6, r6, #4
 2001078:	e5432001 	strb	r2, [r3, #-1]
 200107c:	e1a04003 	mov	r4, r3
 2001080:	13a02000 	movne	r2, #0
 2001084:	03a02001 	moveq	r2, #1
 2001088:	e2833001 	add	r3, r3, #1
 200108c:	e1530001 	cmp	r3, r1
 2001090:	1afffff0 	bne	2001058 <printf+0x120>
 2001094:	ea000001 	b	20010a0 <printf+0x168>
 2001098:	e5d40000 	ldrb	r0, [r4]
 200109c:	ebfffc35 	bl	2000178 <debug_putc>
 20010a0:	e2444001 	sub	r4, r4, #1
 20010a4:	e1540007 	cmp	r4, r7
 20010a8:	2afffffa 	bcs	2001098 <printf+0x160>
 20010ac:	ea000005 	b	20010c8 <printf+0x190>
 20010b0:	e354000a 	cmp	r4, #10
 20010b4:	1a000001 	bne	20010c0 <printf+0x188>
 20010b8:	e3a0000d 	mov	r0, #13
 20010bc:	ebfffc2d 	bl	2000178 <debug_putc>
 20010c0:	e1a00004 	mov	r0, r4
 20010c4:	ebfffc2b 	bl	2000178 <debug_putc>
 20010c8:	e5d54000 	ldrb	r4, [r5]
 20010cc:	e3540000 	cmp	r4, #0
 20010d0:	1affffa4 	bne	2000f68 <printf+0x30>
 20010d4:	e28dd014 	add	sp, sp, #20
 20010d8:	e8bd4ff0 	pop	{r4, r5, r6, r7, r8, r9, sl, fp, lr}
 20010dc:	e28dd010 	add	sp, sp, #16
 20010e0:	e12fff1e 	bx	lr
 20010e4:	0200166b 	andeq	r1, r0, #112197632	; 0x6b00000
 20010e8:	02001208 	andeq	r1, r0, #-2147483648	; 0x80000000

020010ec <__aeabi_uidiv>:
 20010ec:	e2512001 	subs	r2, r1, #1
 20010f0:	012fff1e 	bxeq	lr
 20010f4:	3a000036 	bcc	20011d4 <__aeabi_uidiv+0xe8>
 20010f8:	e1500001 	cmp	r0, r1
 20010fc:	9a000022 	bls	200118c <__aeabi_uidiv+0xa0>
 2001100:	e1110002 	tst	r1, r2
 2001104:	0a000023 	beq	2001198 <__aeabi_uidiv+0xac>
 2001108:	e311020e 	tst	r1, #-536870912	; 0xe0000000
 200110c:	01a01181 	lsleq	r1, r1, #3
 2001110:	03a03008 	moveq	r3, #8
 2001114:	13a03001 	movne	r3, #1
 2001118:	e3510201 	cmp	r1, #268435456	; 0x10000000
 200111c:	31510000 	cmpcc	r1, r0
 2001120:	31a01201 	lslcc	r1, r1, #4
 2001124:	31a03203 	lslcc	r3, r3, #4
 2001128:	3afffffa 	bcc	2001118 <__aeabi_uidiv+0x2c>
 200112c:	e3510102 	cmp	r1, #-2147483648	; 0x80000000
 2001130:	31510000 	cmpcc	r1, r0
 2001134:	31a01081 	lslcc	r1, r1, #1
 2001138:	31a03083 	lslcc	r3, r3, #1
 200113c:	3afffffa 	bcc	200112c <__aeabi_uidiv+0x40>
 2001140:	e3a02000 	mov	r2, #0
 2001144:	e1500001 	cmp	r0, r1
 2001148:	20400001 	subcs	r0, r0, r1
 200114c:	21822003 	orrcs	r2, r2, r3
 2001150:	e15000a1 	cmp	r0, r1, lsr #1
 2001154:	204000a1 	subcs	r0, r0, r1, lsr #1
 2001158:	218220a3 	orrcs	r2, r2, r3, lsr #1
 200115c:	e1500121 	cmp	r0, r1, lsr #2
 2001160:	20400121 	subcs	r0, r0, r1, lsr #2
 2001164:	21822123 	orrcs	r2, r2, r3, lsr #2
 2001168:	e15001a1 	cmp	r0, r1, lsr #3
 200116c:	204001a1 	subcs	r0, r0, r1, lsr #3
 2001170:	218221a3 	orrcs	r2, r2, r3, lsr #3
 2001174:	e3500000 	cmp	r0, #0
 2001178:	11b03223 	lsrsne	r3, r3, #4
 200117c:	11a01221 	lsrne	r1, r1, #4
 2001180:	1affffef 	bne	2001144 <__aeabi_uidiv+0x58>
 2001184:	e1a00002 	mov	r0, r2
 2001188:	e12fff1e 	bx	lr
 200118c:	03a00001 	moveq	r0, #1
 2001190:	13a00000 	movne	r0, #0
 2001194:	e12fff1e 	bx	lr
 2001198:	e3510801 	cmp	r1, #65536	; 0x10000
 200119c:	21a01821 	lsrcs	r1, r1, #16
 20011a0:	23a02010 	movcs	r2, #16
 20011a4:	33a02000 	movcc	r2, #0
 20011a8:	e3510c01 	cmp	r1, #256	; 0x100
 20011ac:	21a01421 	lsrcs	r1, r1, #8
 20011b0:	22822008 	addcs	r2, r2, #8
 20011b4:	e3510010 	cmp	r1, #16
 20011b8:	21a01221 	lsrcs	r1, r1, #4
 20011bc:	22822004 	addcs	r2, r2, #4
 20011c0:	e3510004 	cmp	r1, #4
 20011c4:	82822003 	addhi	r2, r2, #3
 20011c8:	908220a1 	addls	r2, r2, r1, lsr #1
 20011cc:	e1a00230 	lsr	r0, r0, r2
 20011d0:	e12fff1e 	bx	lr
 20011d4:	e52de008 	str	lr, [sp, #-8]!
 20011d8:	eb000008 	bl	2001200 <__aeabi_idiv0>
 20011dc:	e3a00000 	mov	r0, #0
 20011e0:	e49de008 	ldr	lr, [sp], #8
 20011e4:	e12fff1e 	bx	lr

020011e8 <__aeabi_uidivmod>:
 20011e8:	e92d4003 	push	{r0, r1, lr}
 20011ec:	ebffffbe 	bl	20010ec <__aeabi_uidiv>
 20011f0:	e8bd4006 	pop	{r1, r2, lr}
 20011f4:	e0030092 	mul	r3, r2, r0
 20011f8:	e0411003 	sub	r1, r1, r3
 20011fc:	e12fff1e 	bx	lr

02001200 <__aeabi_idiv0>:
 2001200:	e12fff1e 	bx	lr

Disassembly of section .rodata:

02001204 <bootinfo>:
 2001204:	0b003000 	bleq	200d20c <CONFIG_BOOTIMG_BASE+0xb20c>

02001208 <digits.921>:
 2001208:	33323130 	teqcc	r2, #12
 200120c:	37363534 	undefined instruction 0x37363534
 2001210:	62613938 	rsbvs	r3, r1, #917504	; 0xe0000
 2001214:	66656463 	strbtvs	r6, [r5], -r3, ror #8
 2001218:	00000000 	andeq	r0, r0, r0
 200121c:	61766e69 	cmnvs	r6, r9, ror #28
 2001220:	2064696c 	rsbcs	r6, r4, ip, ror #18
 2001224:	6f6c6572 	svcvs	0x006c6572
 2001228:	69746163 	ldmdbvs	r4!, {r0, r1, r5, r6, r8, sp, lr}^
 200122c:	74206e6f 	strtvc	r6, [r0], #-3695	; 0xe6f
 2001230:	00657079 	rsbeq	r7, r5, r9, ror r0
 2001234:	52415f52 	subpl	r5, r1, #328	; 0x148
 2001238:	42415f4d 	submi	r5, r1, #308	; 0x134
 200123c:	3a323353 	bcc	2c8df90 <CONFIG_KERNEL_TEXT+0xb8df90>
 2001240:	786c2520 	stmdavc	ip!, {r5, r8, sl, sp}^
 2001244:	203e2d20 	eorscs	r2, lr, r0, lsr #26
 2001248:	0a786c25 	beq	3e1c2e4 <CONFIG_KERNEL_TEXT+0x1d1c2e4>
 200124c:	415f5200 	cmpmi	pc, r0, lsl #4
 2001250:	505f4d52 	subspl	r4, pc, r2, asr sp
 2001254:	3a343243 	bcc	2d0db68 <CONFIG_KERNEL_TEXT+0xc0db68>
 2001258:	786c2520 	stmdavc	ip!, {r5, r8, sl, sp}^
 200125c:	203e2d20 	eorscs	r2, lr, r0, lsr #26
 2001260:	0a786c25 	beq	3e1c2fc <CONFIG_KERNEL_TEXT+0x1d1c2fc>
 2001264:	6b6e5500 	blvs	3b9666c <CONFIG_KERNEL_TEXT+0x1a9666c>
 2001268:	206e776f 	rsbcs	r7, lr, pc, ror #14
 200126c:	6f6c6572 	svcvs	0x006c6572
 2001270:	69746163 	ldmdbvs	r4!, {r0, r1, r5, r6, r8, sp, lr}^
 2001274:	74206e6f 	strtvc	r6, [r0], #-3695	; 0xe6f
 2001278:	3d657079 	stclcc	0, cr7, [r5, #-484]!	; 0xfffffe1c
 200127c:	000a6425 	andeq	r6, sl, r5, lsr #8
 2001280:	6f6c6572 	svcvs	0x006c6572
 2001284:	69746163 	ldmdbvs	r4!, {r0, r1, r5, r6, r8, sp, lr}^
 2001288:	66206e6f 	strtvs	r6, [r0], -pc, ror #28
 200128c:	006c6961 	rsbeq	r6, ip, r1, ror #18
 2001290:	696e6150 	stmdbvs	lr!, {r4, r6, r8, sp, lr}^
 2001294:	25203a63 	strcs	r3, [r0, #-2659]!	; 0xa63
 2001298:	50000a73 	andpl	r0, r0, r3, ror sl
 200129c:	20786572 	rsbscs	r6, r8, r2, ror r5
 20012a0:	746f6f42 	strbtvc	r6, [pc], #3906	; 20012a8 <digits.921+0xa0>
 20012a4:	616f4c20 	cmnvs	pc, r0, lsr #24
 20012a8:	0a726564 	beq	3c9a840 <CONFIG_KERNEL_TEXT+0x1b9a840>
 20012ac:	746e4500 	strbtvc	r4, [lr], #-1280	; 0x500
 20012b0:	6e697265 	cdpvs	2, 6, cr7, cr9, cr5, {3}
 20012b4:	656b2067 	strbvs	r2, [fp, #-103]!	; 0x67
 20012b8:	6c656e72 	stclvs	14, cr6, [r5], #-456	; 0xfffffe38
 20012bc:	74612820 	strbtvc	r2, [r1], #-2080	; 0x820
 20012c0:	25783020 	ldrbcs	r3, [r8, #-32]!
 20012c4:	2029786c 	eorcs	r7, r9, ip, ror #16
 20012c8:	0a2e2e2e 	beq	2b8cb88 <CONFIG_KERNEL_TEXT+0xa8cb88>
 20012cc:	6f4f000a 	svcvs	0x004f000a
 20012d0:	00217370 	eoreq	r7, r1, r0, ror r3
 20012d4:	49000a60 	stmdbmi	r0, {r5, r6, r9, fp}
 20012d8:	6c61766e 	stclvs	6, cr7, [r1], #-440	; 0xfffffe48
 20012dc:	69206469 	stmdbvs	r0!, {r0, r3, r5, r6, sl, sp, lr}
 20012e0:	6567616d 	strbvs	r6, [r7, #-365]!	; 0x16d
 20012e4:	0a732520 	beq	3cca76c <CONFIG_KERNEL_TEXT+0x1bca76c>
 20012e8:	616f6c00 	cmnvs	pc, r0, lsl #24
 20012ec:	676e6964 	strbvs	r6, [lr, -r4, ror #18]!
 20012f0:	6468203a 	strbtvs	r2, [r8], #-58	; 0x3a
 20012f4:	6c253d72 	stcvs	13, cr3, [r5], #-456	; 0xfffffe38
 20012f8:	6f6d2078 	svcvs	0x006d2078
 20012fc:	656c7564 	strbvs	r7, [ip, #-1380]!	; 0x564
 2001300:	786c253d 	stmdavc	ip!, {r0, r2, r3, r4, r5, r8, sl, sp}^
 2001304:	6d616e20 	stclvs	14, cr6, [r1, #-128]!	; 0xffffff80
 2001308:	73253d65 	teqvc	r5, #6464	; 0x1940
 200130c:	6f4c000a 	svcvs	0x004c000a
 2001310:	65206461 	strvs	r6, [r0, #-1121]!	; 0x461
 2001314:	726f7272 	rsbvc	r7, pc, #536870919	; 0x20000007
 2001318:	613c2100 	teqvs	ip, r0, lsl #2
 200131c:	3e686372 	mcrcc	3, 3, r6, cr8, cr2, {3}
 2001320:	6e49000a 	cdpvs	0, 4, cr0, cr9, cr10, {0}
 2001324:	696c6176 	stmdbvs	ip!, {r1, r2, r4, r5, r6, r8, sp, lr}^
 2001328:	534f2064 	movtpl	r2, #61540	; 0xf064
 200132c:	616d6920 	cmnvs	sp, r0, lsr #18
 2001330:	43006567 	movwmi	r6, #1383	; 0x567
 2001334:	6e206e61 	cdpvs	14, 2, cr6, cr0, cr1, {3}
 2001338:	6c20746f 	cfstrsvs	mvf7, [r0], #-444	; 0xfffffe44
 200133c:	2064616f 	rsbcs	r6, r4, pc, ror #2
 2001340:	6e72656b 	cdpvs	5, 7, cr6, cr2, cr11, {3}
 2001344:	49006c65 	stmdbmi	r0, {r0, r2, r5, r6, sl, fp, sp, lr}
 2001348:	6c61766e 	stclvs	6, cr7, [r1], #-440	; 0xfffffe48
 200134c:	64206469 	strtvs	r6, [r0], #-1129	; 0x469
 2001350:	65766972 	ldrbvs	r6, [r6, #-2418]!	; 0x972
 2001354:	6d692072 	stclvs	0, cr2, [r9, #-456]!	; 0xfffffe38
 2001358:	00656761 	rsbeq	r6, r5, r1, ror #14
 200135c:	206e6143 	rsbcs	r6, lr, r3, asr #2
 2001360:	20746f6e 	rsbscs	r6, r4, lr, ror #30
 2001364:	64616f6c 	strbtvs	r6, [r1], #-3948	; 0xf6c
 2001368:	69726420 	ldmdbvs	r2!, {r5, sl, sp, lr}^
 200136c:	00726576 	rsbseq	r6, r2, r6, ror r5
 2001370:	746f6f62 	strbtvc	r6, [pc], #3938	; 2001378 <digits.921+0x170>
 2001374:	6b736964 	blvs	3cdb90c <CONFIG_KERNEL_TEXT+0x1bdb90c>
 2001378:	4900612e 	stmdbmi	r0, {r1, r2, r3, r5, r8, sp, lr}
 200137c:	6c61766e 	stclvs	6, cr7, [r1], #-440	; 0xfffffe48
 2001380:	62206469 	eorvs	r6, r0, #1761607680	; 0x69000000
 2001384:	64746f6f 	ldrbtvs	r6, [r4], #-3951	; 0xf6f
 2001388:	206b7369 	rsbcs	r7, fp, r9, ror #6
 200138c:	67616d69 	strbvs	r6, [r1, -r9, ror #26]!
 2001390:	53000a65 	movwpl	r0, #2661	; 0xa65
 2001394:	20657a69 	rsbcs	r7, r5, r9, ror #20
 2001398:	6220666f 	eorvs	r6, r0, #116391936	; 0x6f00000
 200139c:	64746f6f 	ldrbtvs	r6, [r4], #-3951	; 0xf6f
 20013a0:	206b7369 	rsbcs	r7, fp, r9, ror #6
 20013a4:	7a207369 	bvc	281e150 <CONFIG_KERNEL_TEXT+0x71e150>
 20013a8:	0a6f7265 	beq	3bddd44 <CONFIG_KERNEL_TEXT+0x1addd44>
 20013ac:	6f6f6200 	svcvs	0x006f6200
 20013b0:	73696474 	cmnvc	r9, #1946157056	; 0x74000000
 20013b4:	6162206b 	cmnvs	r2, fp, rrx
 20013b8:	253d6573 	ldrcs	r6, [sp, #-1395]!	; 0x573
 20013bc:	7320786c 	teqvc	r0, #7077888	; 0x6c0000
 20013c0:	3d657a69 	vstmdbcc	r5!, {s15-s119}
 20013c4:	0a786c25 	beq	3e1c460 <CONFIG_KERNEL_TEXT+0x1d1c460>
 20013c8:	206f4e00 	rsbcs	r4, pc, r0, lsl #28
 20013cc:	746f6f62 	strbtvc	r6, [pc], #3938	; 20013d4 <digits.921+0x1cc>
 20013d0:	73617420 	cmnvc	r1, #536870912	; 0x20000000
 20013d4:	6f66206b 	svcvs	0x0066206b
 20013d8:	21646e75 	smccs	18149	; 0x46e5
 20013dc:	6c650a00 	stclvs	10, cr0, [r5]
 20013e0:	6f6c5f66 	svcvs	0x006c5f66
 20013e4:	000a6461 	andeq	r6, sl, r1, ror #8
 20013e8:	61766e49 	cmnvs	r6, r9, asr #28
 20013ec:	2064696c 	rsbcs	r6, r4, ip, ror #18
 20013f0:	20464c45 	subcs	r4, r6, r5, asr #24
 20013f4:	67616d69 	strbvs	r6, [r1, -r9, ror #26]!
 20013f8:	49000a65 	stmdbmi	r0, {r0, r2, r5, r6, r9, fp}
 20013fc:	6c61766e 	stclvs	6, cr7, [r1], #-440	; 0xfffffe48
 2001400:	6c206469 	cfstrsvs	mvf6, [r0], #-420	; 0xfffffe5c
 2001404:	2064616f 	rsbcs	r6, r4, pc, ror #2
 2001408:	72646461 	rsbvc	r6, r4, #1627389952	; 0x61000000
 200140c:	0a737365 	beq	3cde1a8 <CONFIG_KERNEL_TEXT+0x1bde1a8>
 2001410:	72656b00 	rsbvc	r6, r5, #0
 2001414:	206c656e 	rsbcs	r6, ip, lr, ror #10
 2001418:	65736162 	ldrbvs	r6, [r3, #-354]!	; 0x162
 200141c:	786c253d 	stmdavc	ip!, {r0, r2, r3, r4, r5, r8, sl, sp}^
 2001420:	7264000a 	rsbvc	r0, r4, #10
 2001424:	72657669 	rsbvc	r7, r5, #110100480	; 0x6900000
 2001428:	73616220 	cmnvc	r1, #2
 200142c:	6c253d65 	stcvs	13, cr3, [r5], #-404	; 0xfffffe6c
 2001430:	74000a78 	strvc	r0, [r0], #-2680	; 0xa78
 2001434:	206b7361 	rsbcs	r7, fp, r1, ror #6
 2001438:	65736162 	ldrbvs	r6, [r3, #-354]!	; 0x162
 200143c:	786c253d 	stmdavc	ip!, {r0, r2, r3, r4, r5, r8, sl, sp}^
 2001440:	6870000a 	ldmdavs	r0!, {r1, r3}^
 2001444:	61207379 	teqvs	r0, r9, ror r3
 2001448:	3d726464 	cfldrdcc	mvd6, [r2, #-400]!	; 0xfffffe70
 200144c:	0a786c25 	beq	3e1c4e8 <CONFIG_KERNEL_TEXT+0x1d1c4e8>
 2001450:	665f7000 	ldrbvs	r7, [pc], -r0
 2001454:	7367616c 	cmnvc	r7, #27
 2001458:	0a78253d 	beq	3e0a954 <CONFIG_KERNEL_TEXT+0x1d0a954>
 200145c:	615f7000 	cmpvs	pc, r0
 2001460:	6e67696c 	cdpvs	9, 6, cr6, cr7, cr12, {3}
 2001464:	0a78253d 	beq	3e0a960 <CONFIG_KERNEL_TEXT+0x1d0a960>
 2001468:	705f7000 	subsvc	r7, pc, r0
 200146c:	72646461 	rsbvc	r6, r4, #1627389952	; 0x61000000
 2001470:	0a78253d 	beq	3e0a96c <CONFIG_KERNEL_TEXT+0x1d0a96c>
 2001474:	696b7300 	stmdbvs	fp!, {r8, r9, ip, sp, lr}^
 2001478:	6e697070 	mcrvs	0, 3, r7, cr9, cr0, {3}
 200147c:	78652067 	stmdavc	r5!, {r0, r1, r2, r5, r6, sp}^
 2001480:	20617274 	rsbcs	r7, r1, r4, ror r2
 2001484:	72646870 	rsbvc	r6, r4, #7340032	; 0x700000
 2001488:	6f6c000a 	svcvs	0x006c000a
 200148c:	203a6461 	eorscs	r6, sl, r1, ror #8
 2001490:	7366666f 	cmnvc	r6, #116391936	; 0x6f00000
 2001494:	253d7465 	ldrcs	r7, [sp, #-1125]!	; 0x465
 2001498:	7320786c 	teqvc	r0, #7077888	; 0x6c0000
 200149c:	3d657a69 	vstmdbcc	r5!, {s15-s119}
 20014a0:	000a7825 	andeq	r7, sl, r5, lsr #16
 20014a4:	75646f6d 	strbvc	r6, [r4, #-3949]!	; 0xf6d
 20014a8:	7320656c 	teqvc	r0, #452984832	; 0x1b000000
 20014ac:	3d657a69 	vstmdbcc	r5!, {s15-s119}
 20014b0:	65207825 	strvs	r7, [r0, #-2085]!	; 0x825
 20014b4:	7972746e 	ldmdbvc	r2!, {r1, r2, r3, r5, r6, sl, ip, sp, lr}^
 20014b8:	786c253d 	stmdavc	ip!, {r0, r2, r3, r4, r5, r8, sl, sp}^
 20014bc:	6f4d000a 	svcvs	0x004d000a
 20014c0:	656c7564 	strbvs	r7, [ip, #-1380]!	; 0x564
 20014c4:	7a697320 	bvc	3a5e14c <CONFIG_KERNEL_TEXT+0x195e14c>
 20014c8:	73692065 	cmnvc	r9, #101	; 0x65
 20014cc:	00213020 	eoreq	r3, r1, r0, lsr #32
 20014d0:	615f6873 	cmpvs	pc, r3, ror r8
 20014d4:	3d726464 	cfldrdcc	mvd6, [r2, #-400]!	; 0xfffffe70
 20014d8:	000a7825 	andeq	r7, sl, r5, lsr #16
 20014dc:	735f6873 	cmpvc	pc, #7536640	; 0x730000
 20014e0:	3d657a69 	vstmdbcc	r5!, {s15-s119}
 20014e4:	000a7825 	andeq	r7, sl, r5, lsr #16
 20014e8:	6f5f6873 	svcvs	0x005f6873
 20014ec:	65736666 	ldrbvs	r6, [r3, #-1638]!	; 0x666
 20014f0:	78253d74 	stmdavc	r5!, {r2, r4, r5, r6, r8, sl, fp, ip, sp}
 20014f4:	6873000a 	ldmdavs	r3!, {r1, r3}^
 20014f8:	616c665f 	cmnvs	ip, pc, asr r6
 20014fc:	253d7367 	ldrcs	r7, [sp, #-871]!	; 0x367
 2001500:	6c000a78 	stcvs	10, cr0, [r0], {120}	; 0x78
 2001504:	3a64616f 	bcc	3919ac8 <CONFIG_KERNEL_TEXT+0x1819ac8>
 2001508:	6d797320 	ldclvs	3, cr7, [r9, #-128]!	; 0xffffff80
 200150c:	20626174 	rsbcs	r6, r2, r4, ror r1
 2001510:	65646e69 	strbvs	r6, [r4, #-3689]!	; 0xe69
 2001514:	64253d78 	strtvs	r3, [r5], #-3448	; 0xd78
 2001518:	6e696c20 	cdpvs	12, 6, cr6, cr9, cr0, {1}
 200151c:	64253d6b 	strtvs	r3, [r5], #-3435	; 0xd6b
 2001520:	754d000a 	strbvc	r0, [sp, #-10]
 2001524:	7069746c 	rsbvc	r7, r9, ip, ror #8
 2001528:	7320656c 	teqvc	r0, #452984832	; 0x1b000000
 200152c:	61746d79 	cmnvs	r4, r9, ror sp
 2001530:	6f662062 	svcvs	0x00662062
 2001534:	21646e75 	smccs	18149	; 0x46e5
 2001538:	616f6c00 	cmnvs	pc, r0, lsl #24
 200153c:	73203a64 	teqvc	r0, #409600	; 0x64000
 2001540:	61747274 	cmnvs	r4, r4, ror r2
 2001544:	6e692062 	cdpvs	0, 6, cr2, cr9, cr2, {3}
 2001548:	3d786564 	cfldr64cc	mvdx6, [r8, #-400]!	; 0xfffffe70
 200154c:	61206425 	teqvs	r0, r5, lsr #8
 2001550:	3d726464 	cfldrdcc	mvd6, [r2, #-400]!	; 0xfffffe70
 2001554:	000a7825 	andeq	r7, sl, r5, lsr #16
 2001558:	75646f6d 	strbvc	r6, [r4, #-3949]!	; 0xf6d
 200155c:	6c20656c 	cfstr32vs	mvfx6, [r0], #-432	; 0xfffffe50
 2001560:	5f64616f 	svcpl	0x0064616f
 2001564:	65736162 	ldrbvs	r6, [r3, #-354]!	; 0x162
 2001568:	786c253d 	stmdavc	ip!, {r0, r2, r3, r4, r5, r8, sl, sp}^
 200156c:	78657420 	stmdavc	r5!, {r5, sl, ip, sp, lr}^
 2001570:	6c253d74 	stcvs	13, cr3, [r5], #-464	; 0xfffffe30
 2001574:	72000a78 	andvc	r0, r0, #491520	; 0x78000
 2001578:	636f6c65 	cmnvs	pc, #25856	; 0x6500
 200157c:	5f657461 	svcpl	0x00657461
 2001580:	74636573 	strbtvc	r6, [r3], #-1395	; 0x573
 2001584:	0a6e6f69 	beq	3b9d330 <CONFIG_KERNEL_TEXT+0x1a9d330>
 2001588:	72747300 	rsbsvc	r7, r4, #0
 200158c:	3d626174 	stfcce	f6, [r2, #-464]!	; 0xfffffe30
 2001590:	000a7825 	andeq	r7, sl, r5, lsr #16
 2001594:	20657571 	rsbcs	r7, r5, r1, ror r5
 2001598:	20736564 	rsbscs	r6, r3, r4, ror #10
 200159c:	6f72657a 	svcvs	0x0072657a
 20015a0:	55000a73 	strpl	r0, [r0, #-2675]	; 0xa73
 20015a4:	6665646e 	strbtvs	r6, [r5], -lr, ror #8
 20015a8:	64656e69 	strbtvs	r6, [r5], #-3689	; 0xe69
 20015ac:	6d797320 	ldclvs	3, cr7, [r9, #-128]!	; 0xffffff80
 20015b0:	206c6f62 	rsbcs	r6, ip, r2, ror #30
 20015b4:	20726f66 	rsbscs	r6, r2, r6, ror #30
 20015b8:	5b6c6572 	blpl	3b1ab88 <CONFIG_KERNEL_TEXT+0x1a1ab88>
 20015bc:	205d7825 	subscs	r7, sp, r5, lsr #16
 20015c0:	3d6d7973 	stclcc	9, cr7, [sp, #-460]!	; 0xfffffe34
 20015c4:	0a786c25 	beq	3e1c660 <CONFIG_KERNEL_TEXT+0x1d1c660>
 20015c8:	646e5500 	strbtvs	r5, [lr], #-1280	; 0x500
 20015cc:	6e696665 	cdpvs	6, 6, cr6, cr9, cr5, {3}
 20015d0:	77206465 	strvc	r6, [r0, -r5, ror #8]!
 20015d4:	206b6165 	rsbcs	r6, fp, r5, ror #2
 20015d8:	626d7973 	rsbvs	r7, sp, #1884160	; 0x1cc000
 20015dc:	66206c6f 	strtvs	r6, [r0], -pc, ror #24
 20015e0:	7220726f 	eorvc	r7, r0, #-268435450	; 0xf0000006
 20015e4:	255b6c65 	ldrbcs	r6, [fp, #-3173]	; 0xc65
 20015e8:	000a5d78 	andeq	r5, sl, r8, ror sp
 20015ec:	65646e55 	strbvs	r6, [r4, #-3669]!	; 0xe55
 20015f0:	656e6966 	strbvs	r6, [lr, #-2406]!	; 0x966
 20015f4:	79732064 	ldmdbvc	r3!, {r2, r5, r6, sp}^
 20015f8:	6c6f626d 	sfmvs	f6, 2, [pc], #-436	; (stclvs 2, cr6, [pc], #-436)	; 0xfffffe4c
 20015fc:	726f6620 	rsbvc	r6, pc, #33554432	; 0x2000000
 2001600:	6c657220 	sfmvs	f7, 2, [r5], #-128	; (stclvs 2, cr7, [r5], #-128)	; 0xffffff80
 2001604:	78255b61 	stmdavc	r5!, {r0, r5, r6, r8, r9, fp, ip, lr}
 2001608:	7973205d 	ldmdbvc	r3!, {r0, r2, r3, r4, r6, sp}^
 200160c:	6c253d6d 	stcvs	13, cr3, [r5], #-436	; 0xfffffe4c
 2001610:	55000a78 	strpl	r0, [r0, #-2680]	; 0xa78
 2001614:	6665646e 	strbtvs	r6, [r5], -lr, ror #8
 2001618:	64656e69 	strbtvs	r6, [r5], #-3689	; 0xe69
 200161c:	61657720 	cmnvs	r5, r0, lsr #14
 2001620:	7973206b 	ldmdbvc	r3!, {r0, r1, r3, r5, r6, sp}^
 2001624:	6c6f626d 	sfmvs	f6, 2, [pc], #-436	; (stclvs 2, cr6, [pc], #-436)	; 0xfffffe4c
 2001628:	726f6620 	rsbvc	r6, pc, #33554432	; 0x2000000
 200162c:	6c657220 	sfmvs	f7, 2, [r5], #-128	; (stclvs 2, cr7, [r5], #-128)	; 0xffffff80
 2001630:	78255b61 	stmdavc	r5!, {r0, r5, r6, r8, r9, fp, ip, lr}
 2001634:	52000a5d 	andpl	r0, r0, #380928	; 0x5d000
 2001638:	636f6c65 	cmnvs	pc, #25856	; 0x6500
 200163c:	6f697461 	svcvs	0x00697461
 2001640:	7265206e 	rsbvc	r2, r5, #110	; 0x6e
 2001644:	3a726f72 	bcc	3c9d414 <CONFIG_KERNEL_TEXT+0x1b9d414>
 2001648:	646f6d20 	strbtvs	r6, [pc], #3360	; 2001650 <digits.921+0x448>
 200164c:	3d656c75 	stclcc	12, cr6, [r5, #-468]!	; 0xfffffe2c
 2001650:	000a7325 	andeq	r7, sl, r5, lsr #6
 2001654:	75736e55 	ldrbvc	r6, [r3, #-3669]!	; 0xe55
 2001658:	726f7070 	rsbvc	r7, pc, #112	; 0x70
 200165c:	20646574 	rsbcs	r6, r4, r4, ror r5
 2001660:	656c6966 	strbvs	r6, [ip, #-2406]!	; 0x966
 2001664:	70797420 	rsbsvc	r7, r9, r0, lsr #8
 2001668:	3c000a65 	stccc	10, cr0, [r0], {101}	; 0x65
 200166c:	4c4c554e 	cfstr64mi	mvdx5, [ip], {78}	; 0x4e
 2001670:	Address 0x02001670 is out of bounds.


Disassembly of section .bss:

02001674 <i.918>:
 2001674:	00000000 	andeq	r0, r0, r0

02001678 <buf.917>:
	...

020016cc <strshndx>:
 20016cc:	00000000 	andeq	r0, r0, r0

020016d0 <sect_addr>:
	...

02001750 <load_start>:
 2001750:	00000000 	andeq	r0, r0, r0

02001754 <nr_img>:
 2001754:	00000000 	andeq	r0, r0, r0

02001758 <load_base>:
 2001758:	00000000 	andeq	r0, r0, r0

Disassembly of section .tail:

02001fff <dummy>:
 2001fff:	Address 0x02001fff is out of bounds.


Disassembly of section .ARM.attributes:

00000000 <.ARM.attributes>:
   0:	00002c41 	andeq	r2, r0, r1, asr #24
   4:	61656100 	cmnvs	r5, r0, lsl #2
   8:	01006962 	tsteq	r0, r2, ror #18
   c:	00000022 	andeq	r0, r0, r2, lsr #32
  10:	4d524105 	ldfmie	f4, [r2, #-20]	; 0xffffffec
  14:	45363439 	ldrmi	r3, [r6, #-1081]!	; 0x439
  18:	0600532d 	streq	r5, [r0], -sp, lsr #6
  1c:	09010804 	stmdbeq	r1, {r2, fp}
  20:	14041201 	strne	r1, [r4], #-513	; 0x201
  24:	17011501 	strne	r1, [r1, -r1, lsl #10]
  28:	1a011803 	bne	4603c <CONFIG_LOADER_TEXT-0x1fb9fc4>
  2c:	Address 0x0000002c is out of bounds.


Disassembly of section .comment:

00000000 <.comment>:
   0:	3a434347 	bcc	10d0d24 <CONFIG_LOADER_TEXT-0xf2f2dc>
   4:	65642820 	strbvs	r2, [r4, #-2080]!	; 0x820
   8:	74696b76 	strbtvc	r6, [r9], #-2934	; 0xb76
   c:	204d5241 	subcs	r5, sp, r1, asr #4
  10:	656c6572 	strbvs	r6, [ip, #-1394]!	; 0x572
  14:	20657361 	rsbcs	r7, r5, r1, ror #6
  18:	20293732 	eorcs	r3, r9, r2, lsr r7
  1c:	2e342e34 	mrccs	14, 1, r2, cr4, cr4, {1}
  20:	Address 0x00000020 is out of bounds.


Disassembly of section .debug_abbrev:

00000000 <.debug_abbrev>:
   0:	25011101 	strcs	r1, [r1, #-257]	; 0x101
   4:	030b130e 	movweq	r1, #45838	; 0xb30e
   8:	110e1b0e 	tstne	lr, lr, lsl #22
   c:	10011201 	andne	r1, r1, r1, lsl #4
  10:	02000006 	andeq	r0, r0, #6
  14:	0b0b0024 	bleq	2c00ac <CONFIG_LOADER_TEXT-0x1d3ff54>
  18:	0e030b3e 	vmoveq.16	d3[0], r0
  1c:	24030000 	strcs	r0, [r3]
  20:	3e0b0b00 	vmlacc.f64	d0, d11, d0
  24:	0008030b 	andeq	r0, r8, fp, lsl #6
  28:	00160400 	andseq	r0, r6, r0, lsl #8
  2c:	0b3a0e03 	bleq	e83840 <CONFIG_LOADER_TEXT-0x117c7c0>
  30:	13490b3b 	movtne	r0, #39739	; 0x9b3b
  34:	13050000 	movwne	r0, #20480	; 0x5000
  38:	0b0e0301 	bleq	380c44 <CONFIG_LOADER_TEXT-0x1c7f3bc>
  3c:	3b0b3a0b 	blcc	2ce870 <CONFIG_LOADER_TEXT-0x1d31790>
  40:	0013010b 	andseq	r0, r3, fp, lsl #2
  44:	000d0600 	andeq	r0, sp, r0, lsl #12
  48:	0b3a0e03 	bleq	e8385c <CONFIG_LOADER_TEXT-0x117c7a4>
  4c:	13490b3b 	movtne	r0, #39739	; 0x9b3b
  50:	00000a38 	andeq	r0, r0, r8, lsr sl
  54:	49010107 	stmdbmi	r1, {r0, r1, r2, r8}
  58:	00130113 	andseq	r0, r3, r3, lsl r1
  5c:	00210800 	eoreq	r0, r1, r0, lsl #16
  60:	0b2f1349 	bleq	bc4d8c <CONFIG_LOADER_TEXT-0x143b274>
  64:	24090000 	strcs	r0, [r9]
  68:	3e0b0b00 	vmlacc.f64	d0, d11, d0
  6c:	0a00000b 	beq	a0 <CONFIG_LOADER_TEXT-0x1ffff60>
  70:	0e030113 	mcreq	1, 0, r0, cr3, cr3, {0}
  74:	0b3a050b 	bleq	e814a8 <CONFIG_LOADER_TEXT-0x117eb58>
  78:	13010b3b 	movwne	r0, #6971	; 0x1b3b
  7c:	0d0b0000 	stceq	0, cr0, [fp]
  80:	3a080300 	bcc	200c88 <CONFIG_LOADER_TEXT-0x1dff378>
  84:	490b3b0b 	stmdbmi	fp, {r0, r1, r3, r8, r9, fp, ip, sp}
  88:	000a3813 	andeq	r3, sl, r3, lsl r8
  8c:	012e0c00 	teqeq	lr, r0, lsl #24
  90:	0b3a0e03 	bleq	e838a4 <CONFIG_LOADER_TEXT-0x117c75c>
  94:	0c270b3b 	stceq	11, cr0, [r7], #-236	; 0xffffff14
  98:	13010b20 	movwne	r0, #6944	; 0x1b20
  9c:	340d0000 	strcc	r0, [sp]
  a0:	3a080300 	bcc	200ca8 <CONFIG_LOADER_TEXT-0x1dff358>
  a4:	490b3b0b 	stmdbmi	fp, {r0, r1, r3, r8, r9, fp, ip, sp}
  a8:	0e000013 	mcreq	0, 0, r0, cr0, cr3, {0}
  ac:	0b0b000f 	bleq	2c00f0 <CONFIG_LOADER_TEXT-0x1d3ff10>
  b0:	00001349 	andeq	r1, r0, r9, asr #6
  b4:	3f012e0f 	svccc	0x00012e0f
  b8:	3a0e030c 	bcc	380cf0 <CONFIG_LOADER_TEXT-0x1c7f310>
  bc:	270b3b0b 	strcs	r3, [fp, -fp, lsl #22]
  c0:	1201110c 	andne	r1, r1, #3
  c4:	010a4001 	tsteq	sl, r1
  c8:	10000013 	andne	r0, r0, r3, lsl r0
  cc:	1331011d 	teqne	r1, #1073741831	; 0x40000007
  d0:	01120111 	tsteq	r2, r1, lsl r1
  d4:	0b590b58 	bleq	1642e3c <CONFIG_LOADER_TEXT-0x9bd1c4>
  d8:	0b110000 	bleq	4400e0 <CONFIG_LOADER_TEXT-0x1bbff20>
  dc:	12011101 	andne	r1, r1, #1073741824	; 0x40000000
  e0:	12000001 	andne	r0, r0, #1
  e4:	13310034 	teqne	r1, #52	; 0x34
  e8:	00000a02 	andeq	r0, r0, r2, lsl #20
  ec:	03003413 	movweq	r3, #1043	; 0x413
  f0:	3b0b3a0e 	blcc	2ce930 <CONFIG_LOADER_TEXT-0x1d316d0>
  f4:	3f13490b 	svccc	0x0013490b
  f8:	000c3c0c 	andeq	r3, ip, ip, lsl #24
  fc:	00261400 	eoreq	r1, r6, r0, lsl #8
 100:	00001349 	andeq	r1, r0, r9, asr #6
 104:	01110100 	tsteq	r1, r0, lsl #2
 108:	0b130e25 	bleq	4c39a4 <CONFIG_LOADER_TEXT-0x1b3c65c>
 10c:	0e1b0e03 	cdpeq	14, 1, cr0, cr11, cr3, {0}
 110:	01120111 	tsteq	r2, r1, lsl r1
 114:	00000610 	andeq	r0, r0, r0, lsl r6
 118:	0b002402 	bleq	9128 <CONFIG_LOADER_TEXT-0x1ff6ed8>
 11c:	030b3e0b 	movweq	r3, #48651	; 0xbe0b
 120:	0300000e 	movweq	r0, #14
 124:	0b0b0024 	bleq	2c01bc <CONFIG_LOADER_TEXT-0x1d3fe44>
 128:	08030b3e 	stmdaeq	r3, {r1, r2, r3, r4, r5, r8, r9, fp}
 12c:	24040000 	strcs	r0, [r4]
 130:	3e0b0b00 	vmlacc.f64	d0, d11, d0
 134:	0500000b 	streq	r0, [r0, #-11]
 138:	0c3f002e 	ldceq	0, cr0, [pc], #-184	; 0xffffff48
 13c:	0b3a0e03 	bleq	e83950 <CONFIG_LOADER_TEXT-0x117c6b0>
 140:	0c270b3b 	stceq	11, cr0, [r7], #-236	; 0xffffff14
 144:	01120111 	tsteq	r2, r1, lsl r1
 148:	00000a40 	andeq	r0, r0, r0, asr #20
 14c:	3f012e06 	svccc	0x00012e06
 150:	3a0e030c 	bcc	380d88 <CONFIG_LOADER_TEXT-0x1c7f278>
 154:	270b3b0b 	strcs	r3, [fp, -fp, lsl #22]
 158:	1201110c 	andne	r1, r1, #3
 15c:	01064001 	tsteq	r6, r1
 160:	07000013 	smladeq	r0, r3, r0, r0
 164:	08030005 	stmdaeq	r3, {r0, r2}
 168:	0b3b0b3a 	bleq	ec2e58 <CONFIG_LOADER_TEXT-0x113d1a8>
 16c:	06021349 	streq	r1, [r2], -r9, asr #6
 170:	34080000 	strcc	r0, [r8]
 174:	3a080300 	bcc	200d7c <CONFIG_LOADER_TEXT-0x1dff284>
 178:	490b3b0b 	stmdbmi	fp, {r0, r1, r3, r8, r9, fp, ip, sp}
 17c:	000a0213 	andeq	r0, sl, r3, lsl r2
 180:	01010900 	tsteq	r1, r0, lsl #18
 184:	00001349 	andeq	r1, r0, r9, asr #6
 188:	4900210a 	stmdbmi	r0, {r1, r3, r8, sp}
 18c:	000b2f13 	andeq	r2, fp, r3, lsl pc
 190:	11010000 	tstne	r1, r0
 194:	130e2501 	movwne	r2, #58625	; 0xe501
 198:	1b0e030b 	blne	380dcc <CONFIG_LOADER_TEXT-0x1c7f234>
 19c:	1201110e 	andne	r1, r1, #-2147483645	; 0x80000003
 1a0:	00061001 	andeq	r1, r6, r1
 1a4:	00240200 	eoreq	r0, r4, r0, lsl #4
 1a8:	0b3e0b0b 	bleq	f82ddc <CONFIG_LOADER_TEXT-0x107d224>
 1ac:	00000e03 	andeq	r0, r0, r3, lsl #28
 1b0:	03001603 	movweq	r1, #1539	; 0x603
 1b4:	3b0b3a0e 	blcc	2ce9f4 <CONFIG_LOADER_TEXT-0x1d3160c>
 1b8:	0013490b 	andseq	r4, r3, fp, lsl #18
 1bc:	00240400 	eoreq	r0, r4, r0, lsl #8
 1c0:	0b3e0b0b 	bleq	f82df4 <CONFIG_LOADER_TEXT-0x107d20c>
 1c4:	00000803 	andeq	r0, r0, r3, lsl #16
 1c8:	0b002405 	bleq	91e4 <CONFIG_LOADER_TEXT-0x1ff6e1c>
 1cc:	000b3e0b 	andeq	r3, fp, fp, lsl #28
 1d0:	01130600 	tsteq	r3, r0, lsl #12
 1d4:	0b3a0b0b 	bleq	e82e08 <CONFIG_LOADER_TEXT-0x117d1f8>
 1d8:	1301053b 	movwne	r0, #5435	; 0x153b
 1dc:	0d070000 	stceq	0, cr0, [r7]
 1e0:	3a0e0300 	bcc	380de8 <CONFIG_LOADER_TEXT-0x1c7f218>
 1e4:	49053b0b 	stmdbmi	r5, {r0, r1, r3, r8, r9, fp, ip, sp}
 1e8:	000a3813 	andeq	r3, sl, r3, lsl r8
 1ec:	00160800 	andseq	r0, r6, r0, lsl #16
 1f0:	0b3a0e03 	bleq	e83a04 <CONFIG_LOADER_TEXT-0x117c5fc>
 1f4:	1349053b 	movtne	r0, #38203	; 0x953b
 1f8:	2e090000 	cdpcs	0, 0, cr0, cr9, cr0, {0}
 1fc:	030c3f01 	movweq	r3, #52993	; 0xcf01
 200:	3b0b3a0e 	blcc	2cea40 <CONFIG_LOADER_TEXT-0x1d315c0>
 204:	490c270b 	stmdbmi	ip, {r0, r1, r3, r8, r9, sl, sp}
 208:	12011113 	andne	r1, r1, #-1073741820	; 0xc0000004
 20c:	01064001 	tsteq	r6, r1
 210:	0a000013 	beq	264 <CONFIG_LOADER_TEXT-0x1fffd9c>
 214:	0e030005 	cdpeq	0, 0, cr0, cr3, cr5, {0}
 218:	0b3b0b3a 	bleq	ec2f08 <CONFIG_LOADER_TEXT-0x113d0f8>
 21c:	06021349 	streq	r1, [r2], -r9, asr #6
 220:	0f0b0000 	svceq	0x000b0000
 224:	490b0b00 	stmdbmi	fp, {r8, r9, fp}
 228:	0c000013 	stceq	0, cr0, [r0], {19}
 22c:	08030005 	stmdaeq	r3, {r0, r2}
 230:	0b3b0b3a 	bleq	ec2f20 <CONFIG_LOADER_TEXT-0x113d0e0>
 234:	06021349 	streq	r1, [r2], -r9, asr #6
 238:	340d0000 	strcc	r0, [sp]
 23c:	3a0e0300 	bcc	380e44 <CONFIG_LOADER_TEXT-0x1c7f1bc>
 240:	490b3b0b 	stmdbmi	fp, {r0, r1, r3, r8, r9, fp, ip, sp}
 244:	00060213 	andeq	r0, r6, r3, lsl r2
 248:	00340e00 	eorseq	r0, r4, r0, lsl #28
 24c:	0b3a0803 	bleq	e82260 <CONFIG_LOADER_TEXT-0x117dda0>
 250:	13490b3b 	movtne	r0, #39739	; 0x9b3b
 254:	00000602 	andeq	r0, r0, r2, lsl #12
 258:	01110100 	tsteq	r1, r0, lsl #2
 25c:	0b130e25 	bleq	4c3af8 <CONFIG_LOADER_TEXT-0x1b3c508>
 260:	0e1b0e03 	cdpeq	14, 1, cr0, cr11, cr3, {0}
 264:	01120111 	tsteq	r2, r1, lsl r1
 268:	00000610 	andeq	r0, r0, r0, lsl r6
 26c:	0b002402 	bleq	927c <CONFIG_LOADER_TEXT-0x1ff6d84>
 270:	030b3e0b 	movweq	r3, #48651	; 0xbe0b
 274:	0300000e 	movweq	r0, #14
 278:	0b0b0024 	bleq	2c0310 <CONFIG_LOADER_TEXT-0x1d3fcf0>
 27c:	08030b3e 	stmdaeq	r3, {r1, r2, r3, r4, r5, r8, r9, fp}
 280:	16040000 	strne	r0, [r4], -r0
 284:	3a0e0300 	bcc	380e8c <CONFIG_LOADER_TEXT-0x1c7f174>
 288:	490b3b0b 	stmdbmi	fp, {r0, r1, r3, r8, r9, fp, ip, sp}
 28c:	05000013 	streq	r0, [r0, #-19]
 290:	0b0b000f 	bleq	2c02d4 <CONFIG_LOADER_TEXT-0x1d3fd2c>
 294:	00001349 	andeq	r1, r0, r9, asr #6
 298:	27001506 	strcs	r1, [r0, -r6, lsl #10]
 29c:	0700000c 	streq	r0, [r0, -ip]
 2a0:	0e030113 	mcreq	1, 0, r0, cr3, cr3, {0}
 2a4:	0b3a0b0b 	bleq	e82ed8 <CONFIG_LOADER_TEXT-0x117d128>
 2a8:	13010b3b 	movwne	r0, #6971	; 0x1b3b
 2ac:	0d080000 	stceq	0, cr0, [r8]
 2b0:	3a0e0300 	bcc	380eb8 <CONFIG_LOADER_TEXT-0x1c7f148>
 2b4:	490b3b0b 	stmdbmi	fp, {r0, r1, r3, r8, r9, fp, ip, sp}
 2b8:	000a3813 	andeq	r3, sl, r3, lsl r8
 2bc:	01010900 	tsteq	r1, r0, lsl #18
 2c0:	13011349 	movwne	r1, #4937	; 0x1349
 2c4:	210a0000 	tstcs	sl, r0
 2c8:	2f134900 	svccs	0x00134900
 2cc:	0b00000b 	bleq	300 <CONFIG_LOADER_TEXT-0x1fffd00>
 2d0:	0b0b0024 	bleq	2c0368 <CONFIG_LOADER_TEXT-0x1d3fc98>
 2d4:	00000b3e 	andeq	r0, r0, lr, lsr fp
 2d8:	0301130c 	movweq	r1, #4876	; 0x130c
 2dc:	3a050b0e 	bcc	142f1c <CONFIG_LOADER_TEXT-0x1ebd0e4>
 2e0:	010b3b0b 	tsteq	fp, fp, lsl #22
 2e4:	0d000013 	stceq	0, cr0, [r0, #-76]	; 0xffffffb4
 2e8:	0803000d 	stmdaeq	r3, {r0, r2, r3}
 2ec:	0b3b0b3a 	bleq	ec2fdc <CONFIG_LOADER_TEXT-0x113d024>
 2f0:	0a381349 	beq	e0501c <CONFIG_LOADER_TEXT-0x11fafe4>
 2f4:	2e0e0000 	cdpcs	0, 0, cr0, cr14, cr0, {0}
 2f8:	030c3f01 	movweq	r3, #52993	; 0xcf01
 2fc:	3b0b3a0e 	blcc	2ceb3c <CONFIG_LOADER_TEXT-0x1d314c4>
 300:	200c270b 	andcs	r2, ip, fp, lsl #14
 304:	0013010b 	andseq	r0, r3, fp, lsl #2
 308:	00050f00 	andeq	r0, r5, r0, lsl #30
 30c:	0b3a0803 	bleq	e82320 <CONFIG_LOADER_TEXT-0x117dce0>
 310:	13490b3b 	movtne	r0, #39739	; 0x9b3b
 314:	26100000 	ldrcs	r0, [r0], -r0
 318:	00134900 	andseq	r4, r3, r0, lsl #18
 31c:	012e1100 	teqeq	lr, r0, lsl #2
 320:	01111331 	tsteq	r1, r1, lsr r3
 324:	06400112 	undefined instruction 0x06400112
 328:	00001301 	andeq	r1, r0, r1, lsl #6
 32c:	31000512 	tstcc	r0, r2, lsl r5
 330:	00060213 	andeq	r0, r6, r3, lsl r2
 334:	012e1300 	teqeq	lr, r0, lsl #6
 338:	0e030c3f 	mcreq	12, 0, r0, cr3, cr15, {1}
 33c:	0b3b0b3a 	bleq	ec302c <CONFIG_LOADER_TEXT-0x113cfd4>
 340:	13490c27 	movtne	r0, #39975	; 0x9c27
 344:	01120111 	tsteq	r2, r1, lsl r1
 348:	13010640 	movwne	r0, #5696	; 0x1640
 34c:	34140000 	ldrcc	r0, [r4]
 350:	3a0e0300 	bcc	380f58 <CONFIG_LOADER_TEXT-0x1c7f0a8>
 354:	490b3b0b 	stmdbmi	fp, {r0, r1, r3, r8, r9, fp, ip, sp}
 358:	000a0213 	andeq	r0, sl, r3, lsl r2
 35c:	011d1500 	tsteq	sp, r0, lsl #10
 360:	01111331 	tsteq	r1, r1, lsr r3
 364:	0b580112 	bleq	16007b4 <CONFIG_LOADER_TEXT-0x9ff84c>
 368:	00000b59 	andeq	r0, r0, r9, asr fp
 36c:	31000516 	tstcc	r0, r6, lsl r5
 370:	17000013 	smladne	r0, r3, r0, r0
 374:	0e030034 	mcreq	0, 0, r0, cr3, cr4, {1}
 378:	0b3b0b3a 	bleq	ec3068 <CONFIG_LOADER_TEXT-0x113cf98>
 37c:	0c3f1349 	ldceq	3, cr1, [pc], #-292	; 0xfffffedc
 380:	00000c3c 	andeq	r0, r0, ip, lsr ip
 384:	01110100 	tsteq	r1, r0, lsl #2
 388:	0b130e25 	bleq	4c3c24 <CONFIG_LOADER_TEXT-0x1b3c3dc>
 38c:	0e1b0e03 	cdpeq	14, 1, cr0, cr11, cr3, {0}
 390:	01120111 	tsteq	r2, r1, lsl r1
 394:	00000610 	andeq	r0, r0, r0, lsl r6
 398:	0b002402 	bleq	93a8 <CONFIG_LOADER_TEXT-0x1ff6c58>
 39c:	030b3e0b 	movweq	r3, #48651	; 0xbe0b
 3a0:	0300000e 	movweq	r0, #14
 3a4:	0b0b0024 	bleq	2c043c <CONFIG_LOADER_TEXT-0x1d3fbc4>
 3a8:	08030b3e 	stmdaeq	r3, {r1, r2, r3, r4, r5, r8, r9, fp}
 3ac:	16040000 	strne	r0, [r4], -r0
 3b0:	3a0e0300 	bcc	380fb8 <CONFIG_LOADER_TEXT-0x1c7f048>
 3b4:	490b3b0b 	stmdbmi	fp, {r0, r1, r3, r8, r9, fp, ip, sp}
 3b8:	05000013 	streq	r0, [r0, #-19]
 3bc:	0e030113 	mcreq	1, 0, r0, cr3, cr3, {0}
 3c0:	0b3a0b0b 	bleq	e82ff4 <CONFIG_LOADER_TEXT-0x117d00c>
 3c4:	13010b3b 	movwne	r0, #6971	; 0x1b3b
 3c8:	0d060000 	stceq	0, cr0, [r6]
 3cc:	3a0e0300 	bcc	380fd4 <CONFIG_LOADER_TEXT-0x1c7f02c>
 3d0:	490b3b0b 	stmdbmi	fp, {r0, r1, r3, r8, r9, fp, ip, sp}
 3d4:	000a3813 	andeq	r3, sl, r3, lsl r8
 3d8:	01010700 	tsteq	r1, r0, lsl #14
 3dc:	13011349 	movwne	r1, #4937	; 0x1349
 3e0:	21080000 	tstcs	r8, r0
 3e4:	2f134900 	svccs	0x00134900
 3e8:	0900000b 	stmdbeq	r0, {r0, r1, r3}
 3ec:	0b0b0024 	bleq	2c0484 <CONFIG_LOADER_TEXT-0x1d3fb7c>
 3f0:	00000b3e 	andeq	r0, r0, lr, lsr fp
 3f4:	0301130a 	movweq	r1, #4874	; 0x130a
 3f8:	3a050b0e 	bcc	143038 <CONFIG_LOADER_TEXT-0x1ebcfc8>
 3fc:	010b3b0b 	tsteq	fp, fp, lsl #22
 400:	0b000013 	bleq	454 <CONFIG_LOADER_TEXT-0x1fffbac>
 404:	0803000d 	stmdaeq	r3, {r0, r2, r3}
 408:	0b3b0b3a 	bleq	ec30f8 <CONFIG_LOADER_TEXT-0x113cf08>
 40c:	0a381349 	beq	e05138 <CONFIG_LOADER_TEXT-0x11faec8>
 410:	2e0c0000 	cdpcs	0, 0, cr0, cr12, cr0, {0}
 414:	030c3f00 	movweq	r3, #52992	; 0xcf00
 418:	3b0b3a0e 	blcc	2cec58 <CONFIG_LOADER_TEXT-0x1d313a8>
 41c:	110c270b 	tstne	ip, fp, lsl #14
 420:	40011201 	andmi	r1, r1, r1, lsl #4
 424:	0d00000a 	stceq	0, cr0, [r0, #-40]	; 0xffffffd8
 428:	0e030034 	mcreq	0, 0, r0, cr3, cr4, {1}
 42c:	0b3b0b3a 	bleq	ec311c <CONFIG_LOADER_TEXT-0x113cee4>
 430:	0c3f1349 	ldceq	3, cr1, [pc], #-292	; 0xfffffedc
 434:	00000a02 	andeq	r0, r0, r2, lsl #20
 438:	4900260e 	stmdbmi	r0, {r1, r2, r3, r9, sl, sp}
 43c:	0f000013 	svceq	0x00000013
 440:	0b0b000f 	bleq	2c0484 <CONFIG_LOADER_TEXT-0x1d3fb7c>
 444:	00001349 	andeq	r1, r0, r9, asr #6
 448:	01110100 	tsteq	r1, r0, lsl #2
 44c:	0b130e25 	bleq	4c3ce8 <CONFIG_LOADER_TEXT-0x1b3c318>
 450:	0e1b0e03 	cdpeq	14, 1, cr0, cr11, cr3, {0}
 454:	01120111 	tsteq	r2, r1, lsl r1
 458:	00000610 	andeq	r0, r0, r0, lsl r6
 45c:	0b002402 	bleq	946c <CONFIG_LOADER_TEXT-0x1ff6b94>
 460:	030b3e0b 	movweq	r3, #48651	; 0xbe0b
 464:	0300000e 	movweq	r0, #14
 468:	0b0b0024 	bleq	2c0500 <CONFIG_LOADER_TEXT-0x1d3fb00>
 46c:	08030b3e 	stmdaeq	r3, {r1, r2, r3, r4, r5, r8, r9, fp}
 470:	16040000 	strne	r0, [r4], -r0
 474:	3a0e0300 	bcc	38107c <CONFIG_LOADER_TEXT-0x1c7ef84>
 478:	490b3b0b 	stmdbmi	fp, {r0, r1, r3, r8, r9, fp, ip, sp}
 47c:	05000013 	streq	r0, [r0, #-19]
 480:	0e030113 	mcreq	1, 0, r0, cr3, cr3, {0}
 484:	0b3a0b0b 	bleq	e830b8 <CONFIG_LOADER_TEXT-0x117cf48>
 488:	13010b3b 	movwne	r0, #6971	; 0x1b3b
 48c:	0d060000 	stceq	0, cr0, [r6]
 490:	3a0e0300 	bcc	381098 <CONFIG_LOADER_TEXT-0x1c7ef68>
 494:	490b3b0b 	stmdbmi	fp, {r0, r1, r3, r8, r9, fp, ip, sp}
 498:	000a3813 	andeq	r3, sl, r3, lsl r8
 49c:	01010700 	tsteq	r1, r0, lsl #14
 4a0:	13011349 	movwne	r1, #4937	; 0x1349
 4a4:	21080000 	tstcs	r8, r0
 4a8:	2f134900 	svccs	0x00134900
 4ac:	0900000b 	stmdbeq	r0, {r0, r1, r3}
 4b0:	0b0b0024 	bleq	2c0548 <CONFIG_LOADER_TEXT-0x1d3fab8>
 4b4:	00000b3e 	andeq	r0, r0, lr, lsr fp
 4b8:	0301130a 	movweq	r1, #4874	; 0x130a
 4bc:	3a050b0e 	bcc	1430fc <CONFIG_LOADER_TEXT-0x1ebcf04>
 4c0:	010b3b0b 	tsteq	fp, fp, lsl #22
 4c4:	0b000013 	bleq	518 <CONFIG_LOADER_TEXT-0x1fffae8>
 4c8:	0803000d 	stmdaeq	r3, {r0, r2, r3}
 4cc:	0b3b0b3a 	bleq	ec31bc <CONFIG_LOADER_TEXT-0x113ce44>
 4d0:	0a381349 	beq	e051fc <CONFIG_LOADER_TEXT-0x11fae04>
 4d4:	2e0c0000 	cdpcs	0, 0, cr0, cr12, cr0, {0}
 4d8:	3a0e0301 	bcc	3810e4 <CONFIG_LOADER_TEXT-0x1c7ef1c>
 4dc:	270b3b0b 	strcs	r3, [fp, -fp, lsl #22]
 4e0:	010b200c 	tsteq	fp, ip
 4e4:	0d000013 	stceq	0, cr0, [r0, #-76]	; 0xffffffb4
 4e8:	08030005 	stmdaeq	r3, {r0, r2}
 4ec:	0b3b0b3a 	bleq	ec31dc <CONFIG_LOADER_TEXT-0x113ce24>
 4f0:	00001349 	andeq	r1, r0, r9, asr #6
 4f4:	0300340e 	movweq	r3, #1038	; 0x40e
 4f8:	3b0b3a08 	blcc	2ced20 <CONFIG_LOADER_TEXT-0x1d312e0>
 4fc:	0013490b 	andseq	r4, r3, fp, lsl #18
 500:	00340f00 	eorseq	r0, r4, r0, lsl #30
 504:	0b3a0e03 	bleq	e83d18 <CONFIG_LOADER_TEXT-0x117c2e8>
 508:	13490b3b 	movtne	r0, #39739	; 0x9b3b
 50c:	0f100000 	svceq	0x00100000
 510:	490b0b00 	stmdbmi	fp, {r8, r9, fp}
 514:	11000013 	tstne	r0, r3, lsl r0
 518:	0e03012e 	adfeqsp	f0, f3, #0.5
 51c:	0b3b0b3a 	bleq	ec320c <CONFIG_LOADER_TEXT-0x113cdf4>
 520:	13490c27 	movtne	r0, #39975	; 0x9c27
 524:	01120111 	tsteq	r2, r1, lsl r1
 528:	13010640 	movwne	r0, #5696	; 0x1640
 52c:	05120000 	ldreq	r0, [r2]
 530:	3a080300 	bcc	201138 <CONFIG_LOADER_TEXT-0x1dfeec8>
 534:	490b3b0b 	stmdbmi	fp, {r0, r1, r3, r8, r9, fp, ip, sp}
 538:	00060213 	andeq	r0, r6, r3, lsl r2
 53c:	00341300 	eorseq	r1, r4, r0, lsl #6
 540:	0b3a0803 	bleq	e82554 <CONFIG_LOADER_TEXT-0x117daac>
 544:	13490b3b 	movtne	r0, #39739	; 0x9b3b
 548:	00000602 	andeq	r0, r0, r2, lsl #12
 54c:	3f012e14 	svccc	0x00012e14
 550:	3a0e030c 	bcc	381188 <CONFIG_LOADER_TEXT-0x1c7ee78>
 554:	270b3b0b 	strcs	r3, [fp, -fp, lsl #22]
 558:	1201110c 	andne	r1, r1, #3
 55c:	01064001 	tsteq	r6, r1
 560:	15000013 	strne	r0, [r0, #-19]
 564:	08030034 	stmdaeq	r3, {r2, r4, r5}
 568:	0b3b0b3a 	bleq	ec3258 <CONFIG_LOADER_TEXT-0x113cda8>
 56c:	0a021349 	beq	85298 <CONFIG_LOADER_TEXT-0x1f7ad68>
 570:	1d160000 	ldcne	0, cr0, [r6]
 574:	52133101 	andspl	r3, r3, #1073741824	; 0x40000000
 578:	58065501 	stmdapl	r6, {r0, r8, sl, ip, lr}
 57c:	000b590b 	andeq	r5, fp, fp, lsl #18
 580:	00051700 	andeq	r1, r5, r0, lsl #14
 584:	00001331 	andeq	r1, r0, r1, lsr r3
 588:	55010b18 	strpl	r0, [r1, #-2840]	; 0xb18
 58c:	19000006 	stmdbne	r0, {r1, r2}
 590:	13310034 	teqne	r1, #52	; 0x34
 594:	00000602 	andeq	r0, r0, r2, lsl #12
 598:	0300341a 	movweq	r3, #1050	; 0x41a
 59c:	3b0b3a0e 	blcc	2ceddc <CONFIG_LOADER_TEXT-0x1d31224>
 5a0:	3f13490b 	svccc	0x0013490b
 5a4:	000c3c0c 	andeq	r3, ip, ip, lsl #24
 5a8:	00261b00 	eoreq	r1, r6, r0, lsl #22
 5ac:	00001349 	andeq	r1, r0, r9, asr #6
 5b0:	0300341c 	movweq	r3, #1052	; 0x41c
 5b4:	3b0b3a0e 	blcc	2cedf4 <CONFIG_LOADER_TEXT-0x1d3120c>
 5b8:	3f13490b 	svccc	0x0013490b
 5bc:	000a020c 	andeq	r0, sl, ip, lsl #4
 5c0:	11010000 	tstne	r1, r0
 5c4:	130e2501 	movwne	r2, #58625	; 0xe501
 5c8:	1b0e030b 	blne	3811fc <CONFIG_LOADER_TEXT-0x1c7ee04>
 5cc:	1201110e 	andne	r1, r1, #-2147483645	; 0x80000003
 5d0:	00061001 	andeq	r1, r6, r1
 5d4:	00240200 	eoreq	r0, r4, r0, lsl #4
 5d8:	0b3e0b0b 	bleq	f8320c <CONFIG_LOADER_TEXT-0x107cdf4>
 5dc:	00000e03 	andeq	r0, r0, r3, lsl #28
 5e0:	03001603 	movweq	r1, #1539	; 0x603
 5e4:	3b0b3a0e 	blcc	2cee24 <CONFIG_LOADER_TEXT-0x1d311dc>
 5e8:	0013490b 	andseq	r4, r3, fp, lsl #18
 5ec:	00240400 	eoreq	r0, r4, r0, lsl #8
 5f0:	0b3e0b0b 	bleq	f83224 <CONFIG_LOADER_TEXT-0x107cddc>
 5f4:	00000803 	andeq	r0, r0, r3, lsl #16
 5f8:	03011305 	movweq	r1, #4869	; 0x1305
 5fc:	3a0b0b0e 	bcc	2c323c <CONFIG_LOADER_TEXT-0x1d3cdc4>
 600:	010b3b0b 	tsteq	fp, fp, lsl #22
 604:	06000013 	undefined instruction 0x06000013
 608:	0e03000d 	cdpeq	0, 0, cr0, cr3, cr13, {0}
 60c:	0b3b0b3a 	bleq	ec32fc <CONFIG_LOADER_TEXT-0x113cd04>
 610:	0a381349 	beq	e0533c <CONFIG_LOADER_TEXT-0x11facc4>
 614:	01070000 	tsteq	r7, r0
 618:	01134901 	tsteq	r3, r1, lsl #18
 61c:	08000013 	stmdaeq	r0, {r0, r1, r4}
 620:	13490021 	movtne	r0, #36897	; 0x9021
 624:	00000b2f 	andeq	r0, r0, pc, lsr #22
 628:	0b002409 	bleq	9654 <CONFIG_LOADER_TEXT-0x1ff69ac>
 62c:	000b3e0b 	andeq	r3, fp, fp, lsl #28
 630:	01130a00 	tsteq	r3, r0, lsl #20
 634:	0b3a0b0b 	bleq	e83268 <CONFIG_LOADER_TEXT-0x117cd98>
 638:	13010b3b 	movwne	r0, #6971	; 0x1b3b
 63c:	130b0000 	movwne	r0, #45056	; 0xb000
 640:	3a0b0b01 	bcc	2c324c <CONFIG_LOADER_TEXT-0x1d3cdb4>
 644:	01053b0b 	tsteq	r5, fp, lsl #22
 648:	0c000013 	stceq	0, cr0, [r0], {19}
 64c:	0e03000d 	cdpeq	0, 0, cr0, cr3, cr13, {0}
 650:	053b0b3a 	ldreq	r0, [fp, #-2874]!	; 0xb3a
 654:	0a381349 	beq	e05380 <CONFIG_LOADER_TEXT-0x11fac80>
 658:	160d0000 	strne	r0, [sp], -r0
 65c:	3a0e0300 	bcc	381264 <CONFIG_LOADER_TEXT-0x1c7ed9c>
 660:	49053b0b 	stmdbmi	r5, {r0, r1, r3, r8, r9, fp, ip, sp}
 664:	0e000013 	mcreq	0, 0, r0, cr0, cr3, {0}
 668:	0e03012e 	adfeqsp	f0, f3, #0.5
 66c:	0b3b0b3a 	bleq	ec335c <CONFIG_LOADER_TEXT-0x113cca4>
 670:	13490c27 	movtne	r0, #39975	; 0x9c27
 674:	13010b20 	movwne	r0, #6944	; 0x1b20
 678:	050f0000 	streq	r0, [pc, #0]	; 680 <CONFIG_LOADER_TEXT-0x1fff980>
 67c:	3a0e0300 	bcc	381284 <CONFIG_LOADER_TEXT-0x1c7ed7c>
 680:	490b3b0b 	stmdbmi	fp, {r0, r1, r3, r8, r9, fp, ip, sp}
 684:	10000013 	andne	r0, r0, r3, lsl r0
 688:	08030034 	stmdaeq	r3, {r2, r4, r5}
 68c:	0b3b0b3a 	bleq	ec337c <CONFIG_LOADER_TEXT-0x113cc84>
 690:	00001349 	andeq	r1, r0, r9, asr #6
 694:	03003411 	movweq	r3, #1041	; 0x411
 698:	3b0b3a0e 	blcc	2ceed8 <CONFIG_LOADER_TEXT-0x1d31128>
 69c:	0013490b 	andseq	r4, r3, fp, lsl #18
 6a0:	000f1200 	andeq	r1, pc, r0, lsl #4
 6a4:	13490b0b 	movtne	r0, #39691	; 0x9b0b
 6a8:	05130000 	ldreq	r0, [r3]
 6ac:	3a080300 	bcc	2012b4 <CONFIG_LOADER_TEXT-0x1dfed4c>
 6b0:	490b3b0b 	stmdbmi	fp, {r0, r1, r3, r8, r9, fp, ip, sp}
 6b4:	14000013 	strne	r0, [r0], #-19
 6b8:	0e03012e 	adfeqsp	f0, f3, #0.5
 6bc:	053b0b3a 	ldreq	r0, [fp, #-2874]!	; 0xb3a
 6c0:	13490c27 	movtne	r0, #39975	; 0x9c27
 6c4:	13010b20 	movwne	r0, #6944	; 0x1b20
 6c8:	05150000 	ldreq	r0, [r5]
 6cc:	3a080300 	bcc	2012d4 <CONFIG_LOADER_TEXT-0x1dfed2c>
 6d0:	49053b0b 	stmdbmi	r5, {r0, r1, r3, r8, r9, fp, ip, sp}
 6d4:	16000013 	undefined instruction 0x16000013
 6d8:	0e030034 	mcreq	0, 0, r0, cr3, cr4, {1}
 6dc:	053b0b3a 	ldreq	r0, [fp, #-2874]!	; 0xb3a
 6e0:	00001349 	andeq	r1, r0, r9, asr #6
 6e4:	03003417 	movweq	r3, #1047	; 0x417
 6e8:	3b0b3a08 	blcc	2cef10 <CONFIG_LOADER_TEXT-0x1d310f0>
 6ec:	00134905 	andseq	r4, r3, r5, lsl #18
 6f0:	012e1800 	teqeq	lr, r0, lsl #16
 6f4:	0e030c3f 	mcreq	12, 0, r0, cr3, cr15, {1}
 6f8:	0b3b0b3a 	bleq	ec33e8 <CONFIG_LOADER_TEXT-0x113cc18>
 6fc:	13490c27 	movtne	r0, #39975	; 0x9c27
 700:	01120111 	tsteq	r2, r1, lsl r1
 704:	13010640 	movwne	r0, #5696	; 0x1640
 708:	05190000 	ldreq	r0, [r9]
 70c:	3a080300 	bcc	201314 <CONFIG_LOADER_TEXT-0x1dfecec>
 710:	490b3b0b 	stmdbmi	fp, {r0, r1, r3, r8, r9, fp, ip, sp}
 714:	00060213 	andeq	r0, r6, r3, lsl r2
 718:	011d1a00 	tsteq	sp, r0, lsl #20
 71c:	01111331 	tsteq	r1, r1, lsr r3
 720:	0b580112 	bleq	1600b70 <CONFIG_LOADER_TEXT-0x9ff490>
 724:	13010b59 	movwne	r0, #7001	; 0x1b59
 728:	051b0000 	ldreq	r0, [fp]
 72c:	00133100 	andseq	r3, r3, r0, lsl #2
 730:	010b1c00 	tsteq	fp, r0, lsl #24
 734:	01120111 	tsteq	r2, r1, lsl r1
 738:	341d0000 	ldrcc	r0, [sp]
 73c:	00133100 	andseq	r3, r3, r0, lsl #2
 740:	00341e00 	eorseq	r1, r4, r0, lsl #28
 744:	06021331 	undefined instruction 0x06021331
 748:	1d1f0000 	ldcne	0, cr0, [pc]
 74c:	11133101 	tstne	r3, r1, lsl #2
 750:	58011201 	stmdapl	r1, {r0, r9, ip}
 754:	000b590b 	andeq	r5, fp, fp, lsl #18
 758:	00342000 	eorseq	r2, r4, r0
 75c:	0a021331 	beq	85428 <CONFIG_LOADER_TEXT-0x1f7abd8>
 760:	1d210000 	stcne	0, cr0, [r1]
 764:	52133101 	andspl	r3, r3, #1073741824	; 0x40000000
 768:	58065501 	stmdapl	r6, {r0, r8, sl, ip, lr}
 76c:	0005590b 	andeq	r5, r5, fp, lsl #18
 770:	010b2200 	tsteq	fp, r0, lsl #4
 774:	00000655 	andeq	r0, r0, r5, asr r6
 778:	31011d23 	tstcc	r1, r3, lsr #26
 77c:	12011113 	andne	r1, r1, #-1073741820	; 0xc0000004
 780:	590b5801 	stmdbpl	fp, {r0, fp, ip, lr}
 784:	00130105 	andseq	r0, r3, r5, lsl #2
 788:	00052400 	andeq	r2, r5, r0, lsl #8
 78c:	06021331 	undefined instruction 0x06021331
 790:	1d250000 	stcne	0, cr0, [r5]
 794:	11133101 	tstne	r3, r1, lsl #2
 798:	58011201 	stmdapl	r1, {r0, r9, ip}
 79c:	0005590b 	andeq	r5, r5, fp, lsl #18
 7a0:	00342600 	eorseq	r2, r4, r0, lsl #12
 7a4:	0b3a0e03 	bleq	e83fb8 <CONFIG_LOADER_TEXT-0x117c048>
 7a8:	13490b3b 	movtne	r0, #39739	; 0x9b3b
 7ac:	00000a02 	andeq	r0, r0, r2, lsl #20
 7b0:	03003427 	movweq	r3, #1063	; 0x427
 7b4:	3b0b3a0e 	blcc	2ceff4 <CONFIG_LOADER_TEXT-0x1d3100c>
 7b8:	3f13490b 	svccc	0x0013490b
 7bc:	000c3c0c 	andeq	r3, ip, ip, lsl #24
 7c0:	11010000 	tstne	r1, r0
 7c4:	130e2501 	movwne	r2, #58625	; 0xe501
 7c8:	1b0e030b 	blne	3813fc <CONFIG_LOADER_TEXT-0x1c7ec04>
 7cc:	1201110e 	andne	r1, r1, #-2147483645	; 0x80000003
 7d0:	00061001 	andeq	r1, r6, r1
 7d4:	00240200 	eoreq	r0, r4, r0, lsl #4
 7d8:	0b3e0b0b 	bleq	f8340c <CONFIG_LOADER_TEXT-0x107cbf4>
 7dc:	00000e03 	andeq	r0, r0, r3, lsl #28
 7e0:	0b002403 	bleq	97f4 <CONFIG_LOADER_TEXT-0x1ff680c>
 7e4:	030b3e0b 	movweq	r3, #48651	; 0xbe0b
 7e8:	04000008 	streq	r0, [r0], #-8
 7ec:	0b0b0024 	bleq	2c0884 <CONFIG_LOADER_TEXT-0x1d3f77c>
 7f0:	00000b3e 	andeq	r0, r0, lr, lsr fp
 7f4:	3f002e05 	svccc	0x00002e05
 7f8:	3a0e030c 	bcc	381430 <CONFIG_LOADER_TEXT-0x1c7ebd0>
 7fc:	270b3b0b 	strcs	r3, [fp, -fp, lsl #22]
 800:	1201110c 	andne	r1, r1, #3
 804:	000a4001 	andeq	r4, sl, r1
 808:	11010000 	tstne	r1, r0
 80c:	130e2501 	movwne	r2, #58625	; 0xe501
 810:	1b0e030b 	blne	381444 <CONFIG_LOADER_TEXT-0x1c7ebbc>
 814:	1201110e 	andne	r1, r1, #-2147483645	; 0x80000003
 818:	00061001 	andeq	r1, r6, r1
 81c:	00240200 	eoreq	r0, r4, r0, lsl #4
 820:	0b3e0b0b 	bleq	f83454 <CONFIG_LOADER_TEXT-0x107cbac>
 824:	00000e03 	andeq	r0, r0, r3, lsl #28
 828:	0b002403 	bleq	983c <CONFIG_LOADER_TEXT-0x1ff67c4>
 82c:	030b3e0b 	movweq	r3, #48651	; 0xbe0b
 830:	04000008 	streq	r0, [r0], #-8
 834:	0e030016 	mcreq	0, 0, r0, cr3, cr6, {0}
 838:	0b3b0b3a 	bleq	ec3528 <CONFIG_LOADER_TEXT-0x113cad8>
 83c:	00001349 	andeq	r1, r0, r9, asr #6
 840:	0b002405 	bleq	985c <CONFIG_LOADER_TEXT-0x1ff67a4>
 844:	000b3e0b 	andeq	r3, fp, fp, lsl #28
 848:	012e0600 	teqeq	lr, r0, lsl #12
 84c:	0e030c3f 	mcreq	12, 0, r0, cr3, cr15, {1}
 850:	0b3b0b3a 	bleq	ec3540 <CONFIG_LOADER_TEXT-0x113cac0>
 854:	13490c27 	movtne	r0, #39975	; 0x9c27
 858:	01120111 	tsteq	r2, r1, lsl r1
 85c:	13010640 	movwne	r0, #5696	; 0x1640
 860:	05070000 	streq	r0, [r7]
 864:	3a080300 	bcc	20146c <CONFIG_LOADER_TEXT-0x1dfeb94>
 868:	490b3b0b 	stmdbmi	fp, {r0, r1, r3, r8, r9, fp, ip, sp}
 86c:	00060213 	andeq	r0, r6, r3, lsl r2
 870:	00340800 	eorseq	r0, r4, r0, lsl #16
 874:	0b3a0803 	bleq	e82888 <CONFIG_LOADER_TEXT-0x117d778>
 878:	13490b3b 	movtne	r0, #39739	; 0x9b3b
 87c:	00000a02 	andeq	r0, r0, r2, lsl #20
 880:	0b000f09 	bleq	44ac <CONFIG_LOADER_TEXT-0x1ffbb54>
 884:	0013490b 	andseq	r4, r3, fp, lsl #18
 888:	00260a00 	eoreq	r0, r6, r0, lsl #20
 88c:	00001349 	andeq	r1, r0, r9, asr #6
 890:	3f012e0b 	svccc	0x00012e0b
 894:	3a0e030c 	bcc	3814cc <CONFIG_LOADER_TEXT-0x1c7eb34>
 898:	270b3b0b 	strcs	r3, [fp, -fp, lsl #22]
 89c:	1113490c 	tstne	r3, ip, lsl #18
 8a0:	40011201 	andmi	r1, r1, r1, lsl #4
 8a4:	0013010a 	andseq	r0, r3, sl, lsl #2
 8a8:	00050c00 	andeq	r0, r5, r0, lsl #24
 8ac:	0b3a0e03 	bleq	e840c0 <CONFIG_LOADER_TEXT-0x117bf40>
 8b0:	13490b3b 	movtne	r0, #39739	; 0x9b3b
 8b4:	00000602 	andeq	r0, r0, r2, lsl #12
 8b8:	0300340d 	movweq	r3, #1037	; 0x40d
 8bc:	3b0b3a08 	blcc	2cf0e4 <CONFIG_LOADER_TEXT-0x1d30f1c>
 8c0:	0213490b 	andseq	r4, r3, #180224	; 0x2c000
 8c4:	0e000006 	cdpeq	0, 0, cr0, cr0, cr6, {0}
 8c8:	08030005 	stmdaeq	r3, {r0, r2}
 8cc:	0b3b0b3a 	bleq	ec35bc <CONFIG_LOADER_TEXT-0x113ca44>
 8d0:	0a021349 	beq	855fc <CONFIG_LOADER_TEXT-0x1f7aa04>
 8d4:	050f0000 	streq	r0, [pc, #0]	; 8dc <CONFIG_LOADER_TEXT-0x1fff724>
 8d8:	3a0e0300 	bcc	3814e0 <CONFIG_LOADER_TEXT-0x1c7eb20>
 8dc:	490b3b0b 	stmdbmi	fp, {r0, r1, r3, r8, r9, fp, ip, sp}
 8e0:	000a0213 	andeq	r0, sl, r3, lsl r2
 8e4:	00341000 	eorseq	r1, r4, r0
 8e8:	0b3a0803 	bleq	e828fc <CONFIG_LOADER_TEXT-0x117d704>
 8ec:	13490b3b 	movtne	r0, #39739	; 0x9b3b
 8f0:	0f110000 	svceq	0x00110000
 8f4:	000b0b00 	andeq	r0, fp, r0, lsl #22
 8f8:	00261200 	eoreq	r1, r6, r0, lsl #4
 8fc:	2e130000 	cdpcs	0, 1, cr0, cr3, cr0, {0}
 900:	030c3f01 	movweq	r3, #52993	; 0xcf01
 904:	3b0b3a0e 	blcc	2cf144 <CONFIG_LOADER_TEXT-0x1d30ebc>
 908:	490c270b 	stmdbmi	ip, {r0, r1, r3, r8, r9, sl, sp}
 90c:	12011113 	andne	r1, r1, #-1073741820	; 0xc0000004
 910:	000a4001 	andeq	r4, sl, r1
 914:	11010000 	tstne	r1, r0
 918:	130e2501 	movwne	r2, #58625	; 0xe501
 91c:	1b0e030b 	blne	381550 <CONFIG_LOADER_TEXT-0x1c7eab0>
 920:	1201110e 	andne	r1, r1, #-2147483645	; 0x80000003
 924:	00061001 	andeq	r1, r6, r1
 928:	00240200 	eoreq	r0, r4, r0, lsl #4
 92c:	0b3e0b0b 	bleq	f83560 <CONFIG_LOADER_TEXT-0x107caa0>
 930:	00000e03 	andeq	r0, r0, r3, lsl #28
 934:	0b002403 	bleq	9948 <CONFIG_LOADER_TEXT-0x1ff66b8>
 938:	030b3e0b 	movweq	r3, #48651	; 0xbe0b
 93c:	04000008 	streq	r0, [r0], #-8
 940:	0b0b0024 	bleq	2c09d8 <CONFIG_LOADER_TEXT-0x1d3f628>
 944:	00000b3e 	andeq	r0, r0, lr, lsr fp
 948:	3f012e05 	svccc	0x00012e05
 94c:	3a0e030c 	bcc	381584 <CONFIG_LOADER_TEXT-0x1c7ea7c>
 950:	270b3b0b 	strcs	r3, [fp, -fp, lsl #22]
 954:	1201110c 	andne	r1, r1, #3
 958:	01064001 	tsteq	r6, r1
 95c:	06000013 	undefined instruction 0x06000013
 960:	08030005 	stmdaeq	r3, {r0, r2}
 964:	0b3b0b3a 	bleq	ec3654 <CONFIG_LOADER_TEXT-0x113c9ac>
 968:	06021349 	streq	r1, [r2], -r9, asr #6
 96c:	18070000 	stmdane	r7, {}
 970:	08000000 	stmdaeq	r0, {}
 974:	0e030034 	mcreq	0, 0, r0, cr3, cr4, {1}
 978:	0b3b0b3a 	bleq	ec3668 <CONFIG_LOADER_TEXT-0x113c998>
 97c:	0a021349 	beq	856a8 <CONFIG_LOADER_TEXT-0x1f7a958>
 980:	34090000 	strcc	r0, [r9]
 984:	3a080300 	bcc	20158c <CONFIG_LOADER_TEXT-0x1dfea74>
 988:	490b3b0b 	stmdbmi	fp, {r0, r1, r3, r8, r9, fp, ip, sp}
 98c:	000a0213 	andeq	r0, sl, r3, lsl r2
 990:	00340a00 	eorseq	r0, r4, r0, lsl #20
 994:	0b3a0803 	bleq	e829a8 <CONFIG_LOADER_TEXT-0x117d658>
 998:	13490b3b 	movtne	r0, #39739	; 0x9b3b
 99c:	00000602 	andeq	r0, r0, r2, lsl #12
 9a0:	0300340b 	movweq	r3, #1035	; 0x40b
 9a4:	3b0b3a08 	blcc	2cf1cc <CONFIG_LOADER_TEXT-0x1d30e34>
 9a8:	0013490b 	andseq	r4, r3, fp, lsl #18
 9ac:	000f0c00 	andeq	r0, pc, r0, lsl #24
 9b0:	13490b0b 	movtne	r0, #39691	; 0x9b0b
 9b4:	260d0000 	strcs	r0, [sp], -r0
 9b8:	00134900 	andseq	r4, r3, r0, lsl #18
 9bc:	01010e00 	tsteq	r1, r0, lsl #28
 9c0:	13011349 	movwne	r1, #4937	; 0x1349
 9c4:	210f0000 	mrscs	r0, CPSR
 9c8:	2f134900 	svccs	0x00134900
 9cc:	1000000b 	andne	r0, r0, fp
 9d0:	0e030113 	mcreq	1, 0, r0, cr3, cr3, {0}
 9d4:	13010b0b 	movwne	r0, #6923	; 0x1b0b
 9d8:	0d110000 	ldceq	0, cr0, [r1]
 9dc:	490e0300 	stmdbmi	lr, {r8, r9}
 9e0:	340a3813 	strcc	r3, [sl], #-2067	; 0x813
 9e4:	1200000c 	andne	r0, r0, #12
 9e8:	0b0b000f 	bleq	2c0a2c <CONFIG_LOADER_TEXT-0x1d3f5d4>
 9ec:	Address 0x000009ec is out of bounds.


Disassembly of section .debug_info:

00000000 <.debug_info>:
       0:	000002b2 	undefined instruction 0x000002b2
       4:	00000002 	andeq	r0, r0, r2
       8:	01040000 	tsteq	r4, r0
       c:	0000009a 	muleq	r0, sl, r0
      10:	00010801 	andeq	r0, r1, r1, lsl #16
      14:	0000c500 	andeq	ip, r0, r0, lsl #10
      18:	00012000 	andeq	r2, r1, r0
      1c:	00017402 	andeq	r7, r1, r2, lsl #8
      20:	00000002 	andeq	r0, r0, r2
      24:	06010200 	streq	r0, [r1], -r0, lsl #4
      28:	0000003e 	andeq	r0, r0, lr, lsr r0
      2c:	3c080102 	stfccs	f0, [r8], {2}
      30:	02000000 	andeq	r0, r0, #0
      34:	00bb0502 	adcseq	r0, fp, r2, lsl #10
      38:	02020000 	andeq	r0, r2, #0
      3c:	00006307 	andeq	r6, r0, r7, lsl #6
      40:	05040300 	streq	r0, [r4, #-768]	; 0x300
      44:	00746e69 	rsbseq	r6, r4, r9, ror #28
      48:	56070402 	strpl	r0, [r7], -r2, lsl #8
      4c:	04000000 	streq	r0, [r0]
      50:	00000014 	andeq	r0, r0, r4, lsl r0
      54:	005a3002 	subseq	r3, sl, r2
      58:	04020000 	streq	r0, [r2]
      5c:	00005107 	andeq	r5, r0, r7, lsl #2
      60:	011a0400 	tsteq	sl, r0, lsl #8
      64:	31020000 	tstcc	r2, r0
      68:	0000005a 	andeq	r0, r0, sl, asr r0
      6c:	00013104 	andeq	r3, r1, r4, lsl #2
      70:	5a320200 	bpl	c80878 <CONFIG_LOADER_TEXT-0x137f788>
      74:	04000000 	streq	r0, [r0]
      78:	0000011b 	andeq	r0, r0, fp, lsl r1
      7c:	00485903 	subeq	r5, r8, r3, lsl #18
      80:	04020000 	streq	r0, [r2]
      84:	0000ff05 	andeq	pc, r0, r5, lsl #30
      88:	00340500 	eorseq	r0, r4, r0, lsl #10
      8c:	04100000 	ldreq	r0, [r0]
      90:	0000ce30 	andeq	ip, r0, r0, lsr lr
      94:	00760600 	rsbseq	r0, r6, r0, lsl #12
      98:	31040000 	tstcc	r4, r0
      9c:	00000041 	andeq	r0, r0, r1, asr #32
      a0:	06002302 	streq	r2, [r0], -r2, lsl #6
      a4:	0000007e 	andeq	r0, r0, lr, ror r0
      a8:	00413204 	subeq	r3, r1, r4, lsl #4
      ac:	23020000 	movwcs	r0, #8192	; 0x2000
      b0:	00210604 	eoreq	r0, r1, r4, lsl #12
      b4:	33040000 	movwcc	r0, #16384	; 0x4000
      b8:	00000041 	andeq	r0, r0, r1, asr #32
      bc:	06082302 	streq	r2, [r8], -r2, lsl #6
      c0:	00000028 	andeq	r0, r0, r8, lsr #32
      c4:	00413404 	subeq	r3, r1, r4, lsl #8
      c8:	23020000 	movwcs	r0, #8192	; 0x2000
      cc:	9505000c 	strls	r0, [r5, #-12]
      d0:	30000002 	andcc	r0, r0, r2
      d4:	01593c04 	cmpeq	r9, r4, lsl #24
      d8:	e9060000 	stmdb	r6, {}
      dc:	04000004 	streq	r0, [r0], #-4
      e0:	0001593d 	andeq	r5, r1, sp, lsr r9
      e4:	00230200 	eoreq	r0, r3, r0, lsl #4
      e8:	00000706 	andeq	r0, r0, r6, lsl #14
      ec:	4f3e0400 	svcmi	0x003e0400
      f0:	02000000 	andeq	r0, r0, #0
      f4:	94061023 	strls	r1, [r6], #-35	; 0x23
      f8:	04000004 	streq	r0, [r0], #-4
      fc:	0000773f 	andeq	r7, r0, pc, lsr r7
     100:	14230200 	strtne	r0, [r3], #-512	; 0x200
     104:	00030206 	andeq	r0, r3, r6, lsl #4
     108:	6c400400 	cfstrdvs	mvd0, [r0], {0}
     10c:	02000000 	andeq	r0, r0, #0
     110:	1c061823 	stcne	8, cr1, [r6], {35}	; 0x23
     114:	04000000 	streq	r0, [r0]
     118:	00006c41 	andeq	r6, r0, r1, asr #24
     11c:	1c230200 	sfmne	f0, 4, [r3]	; (stcne 2, cr0, [r3])
     120:	00002f06 	andeq	r2, r0, r6, lsl #30
     124:	6c420400 	cfstrdvs	mvd0, [r2], {0}
     128:	02000000 	andeq	r0, r0, #0
     12c:	b4062023 	strlt	r2, [r6], #-35	; 0x23
     130:	04000000 	streq	r0, [r0]
     134:	00007743 	andeq	r7, r0, r3, asr #14
     138:	24230200 	strtcs	r0, [r3], #-512	; 0x200
     13c:	00004a06 	andeq	r4, r0, r6, lsl #20
     140:	77440400 	strbvc	r0, [r4, -r0, lsl #8]
     144:	02000000 	andeq	r0, r0, #0
     148:	94062823 	strls	r2, [r6], #-2083	; 0x823
     14c:	04000000 	streq	r0, [r0]
     150:	00007745 	andeq	r7, r0, r5, asr #14
     154:	2c230200 	sfmcs	f0, 4, [r3]	; (stccs 2, cr0, [r3])
     158:	016c0700 	cmneq	ip, r0, lsl #14
     15c:	01690000 	cmneq	r9, r0
     160:	69080000 	stmdbvs	r8, {}
     164:	0f000001 	svceq	0x00000001
     168:	07040900 	streq	r0, [r4, -r0, lsl #18]
     16c:	45080102 	strmi	r0, [r8, #-258]	; 0x102
     170:	05000000 	streq	r0, [r0]
     174:	00000122 	andeq	r0, r0, r2, lsr #2
     178:	aa4c040c 	bge	13011b0 <CONFIG_LOADER_TEXT-0xcfee50>
     17c:	06000001 	streq	r0, [r0], -r1
     180:	000002c6 	andeq	r0, r0, r6, asr #5
     184:	004f4d04 	subeq	r4, pc, r4, lsl #26
     188:	23020000 	movwcs	r0, #8192	; 0x2000
     18c:	04940600 	ldreq	r0, [r4], #1536	; 0x600
     190:	4e040000 	cdpmi	0, 0, cr0, cr4, cr0, {0}
     194:	00000061 	andeq	r0, r0, r1, rrx
     198:	06042302 	streq	r2, [r4], -r2, lsl #6
     19c:	000003c8 	andeq	r0, r0, r8, asr #7
     1a0:	00414f04 	subeq	r4, r1, r4, lsl #30
     1a4:	23020000 	movwcs	r0, #8192	; 0x2000
     1a8:	330a0008 	movwcc	r0, #40968	; 0xa008
     1ac:	14000002 	strne	r0, [r0], #-2
     1b0:	2c5e0401 	cfldrdcs	mvd0, [lr], {1}
     1b4:	06000002 	streq	r0, [r0], -r2
     1b8:	00000086 	andeq	r0, r0, r6, lsl #1
     1bc:	00895f04 	addeq	r5, r9, r4, lsl #30
     1c0:	23020000 	movwcs	r0, #8192	; 0x2000
     1c4:	61720b00 	cmnvs	r2, r0, lsl #22
     1c8:	6004006d 	andvs	r0, r4, sp, rrx
     1cc:	0000022c 	andeq	r0, r0, ip, lsr #4
     1d0:	06102302 	ldreq	r2, [r0], -r2, lsl #6
     1d4:	0000000c 	andeq	r0, r0, ip
     1d8:	00416104 	subeq	r6, r1, r4, lsl #2
     1dc:	23020000 	movwcs	r0, #8192	; 0x2000
     1e0:	02870670 	addeq	r0, r7, #117440512	; 0x7000000
     1e4:	62040000 	andvs	r0, r4, #0
     1e8:	00000173 	andeq	r0, r0, r3, ror r1
     1ec:	06742302 	ldrbteq	r2, [r4], -r2, lsl #6
     1f0:	000000f6 	strdeq	r0, [r0], -r6
     1f4:	00416304 	subeq	r6, r1, r4, lsl #6
     1f8:	23030000 	movwcs	r0, #12288	; 0x3000
     1fc:	00060180 	andeq	r0, r6, r0, lsl #3
     200:	04000000 	streq	r0, [r0]
     204:	0000ce64 	andeq	ip, r0, r4, ror #28
     208:	84230300 	strthi	r0, [r3], #-768	; 0x300
     20c:	012a0601 	teqeq	sl, r1, lsl #12
     210:	65040000 	strvs	r0, [r4]
     214:	000000ce 	andeq	r0, r0, lr, asr #1
     218:	01b42303 	undefined instruction 0x01b42303
     21c:	0000f906 	andeq	pc, r0, r6, lsl #18
     220:	3c660400 	cfstrdcc	mvd0, [r6]
     224:	03000002 	movweq	r0, #2
     228:	0001e423 	andeq	lr, r1, r3, lsr #8
     22c:	00017307 	andeq	r7, r1, r7, lsl #6
     230:	00023c00 	andeq	r3, r2, r0, lsl #24
     234:	01690800 	cmneq	r9, r0, lsl #16
     238:	00070000 	andeq	r0, r7, r0
     23c:	0000ce07 	andeq	ip, r0, r7, lsl #28
     240:	00024c00 	andeq	r4, r2, r0, lsl #24
     244:	01690800 	cmneq	r9, r0, lsl #16
     248:	00000000 	andeq	r0, r0, r0
     24c:	0000a60c 	andeq	sl, r0, ip, lsl #12
     250:	01260100 	teqeq	r6, r0, lsl #2
     254:	00026401 	andeq	r6, r2, r1, lsl #8
     258:	69620d00 	stmdbvs	r2!, {r8, sl, fp}^
     25c:	64280100 	strtvs	r0, [r8], #-256	; 0x100
     260:	00000002 	andeq	r0, r0, r2
     264:	01aa040e 	undefined instruction 0x01aa040e
     268:	010f0000 	mrseq	r0, CPSR
     26c:	0000008c 	andeq	r0, r0, ip, lsl #1
     270:	20014201 	andcs	r4, r1, r1, lsl #4
     274:	74020001 	strvc	r0, [r2], #-1
     278:	01020001 	tsteq	r2, r1
     27c:	0002a35d 	andeq	sl, r2, sp, asr r3
     280:	024c1000 	subeq	r1, ip, #0
     284:	01200000 	teqeq	r0, r0
     288:	016c0200 	cmneq	ip, r0, lsl #4
     28c:	44010200 	strmi	r0, [r1], #-512	; 0x200
     290:	00012011 	andeq	r2, r1, r1, lsl r0
     294:	00016c02 	andeq	r6, r1, r2, lsl #24
     298:	02591202 	subseq	r1, r9, #536870912	; 0x20000000
     29c:	53010000 	movwpl	r0, #4096	; 0x1000
     2a0:	13000000 	movwne	r0, #0
     2a4:	00000233 	andeq	r0, r0, r3, lsr r2
     2a8:	02b03705 	adcseq	r3, r0, #1310720	; 0x140000
     2ac:	01010000 	tsteq	r1, r0
     2b0:	00026414 	andeq	r6, r2, r4, lsl r4
     2b4:	00ca0000 	sbceq	r0, sl, r0
     2b8:	00020000 	andeq	r0, r2, r0
     2bc:	00000105 	andeq	r0, r0, r5, lsl #2
     2c0:	009a0104 	addseq	r0, sl, r4, lsl #2
     2c4:	4f010000 	svcmi	0x00010000
     2c8:	c5000001 	strgt	r0, [r0, #-1]
     2cc:	74000000 	strvc	r0, [r0]
     2d0:	c8020001 	stmdagt	r2, {r0}
     2d4:	2f020001 	svccs	0x00020001
     2d8:	02000001 	andeq	r0, r0, #1
     2dc:	003e0601 	eorseq	r0, lr, r1, lsl #12
     2e0:	01020000 	tsteq	r2, r0
     2e4:	00003c08 	andeq	r3, r0, r8, lsl #24
     2e8:	05020200 	streq	r0, [r2, #-512]	; 0x200
     2ec:	000000bb 	strheq	r0, [r0], -fp
     2f0:	63070202 	movwvs	r0, #29186	; 0x7202
     2f4:	03000000 	movweq	r0, #0
     2f8:	6e690504 	cdpvs	5, 6, cr0, cr9, cr4, {0}
     2fc:	04020074 	streq	r0, [r2], #-116	; 0x74
     300:	00005607 	andeq	r5, r0, r7, lsl #12
     304:	07040200 	streq	r0, [r4, -r0, lsl #4]
     308:	00000051 	andeq	r0, r0, r1, asr r0
     30c:	ff050402 	undefined instruction 0xff050402
     310:	04000000 	streq	r0, [r0]
     314:	01020704 	tsteq	r2, r4, lsl #14
     318:	00004508 	andeq	r4, r0, r8, lsl #10
     31c:	44010500 	strmi	r0, [r1], #-1280	; 0x500
     320:	01000001 	tsteq	r0, r1
     324:	01740140 	cmneq	r4, r0, asr #2
     328:	01780200 	cmneq	r8, r0, lsl #4
     32c:	5d010200 	sfmpl	f0, 4, [r1]	; (stcpl 2, cr0, [r1])
     330:	01390106 	teqeq	r9, r6, lsl #2
     334:	28010000 	stmdacs	r1, {}
     338:	00017801 	andeq	r7, r1, r1, lsl #16
     33c:	0001c802 	andeq	ip, r1, r2, lsl #16
     340:	00000002 	andeq	r0, r0, r2
     344:	0000c100 	andeq	ip, r0, r0, lsl #2
     348:	00630700 	rsbeq	r0, r3, r0, lsl #14
     34c:	00412801 	subeq	r2, r1, r1, lsl #16
     350:	001f0000 	andseq	r0, pc, r0
     354:	62080000 	andvs	r0, r8, #0
     358:	01006675 	tsteq	r0, r5, ror r6
     35c:	0000c12c 	andeq	ip, r0, ip, lsr #2
     360:	78030500 	stmdavc	r3, {r8, sl}
     364:	08020016 	stmdaeq	r2, {r1, r2, r4}
     368:	2d010069 	stccs	0, cr0, [r1, #-420]	; 0xfffffe5c
     36c:	00000041 	andeq	r0, r0, r1, asr #32
     370:	16740305 	ldrbtne	r0, [r4], -r5, lsl #6
     374:	09000200 	stmdbeq	r0, {r9}
     378:	00000060 	andeq	r0, r0, r0, rrx
     37c:	00005d0a 	andeq	r5, r0, sl, lsl #26
     380:	00005000 	andeq	r5, r0, r0
     384:	000001ed 	andeq	r0, r0, sp, ror #3
     388:	01920002 	orrseq	r0, r2, r2
     38c:	01040000 	tsteq	r4, r0
     390:	0000009a 	muleq	r0, sl, r0
     394:	0001ed01 	andeq	lr, r1, r1, lsl #26
     398:	0000c500 	andeq	ip, r0, r0, lsl #10
     39c:	0001c800 	andeq	ip, r1, r0, lsl #16
     3a0:	0002a402 	andeq	sl, r2, r2, lsl #8
     3a4:	00017f02 	andeq	r7, r1, r2, lsl #30
     3a8:	06010200 	streq	r0, [r1], -r0, lsl #4
     3ac:	0000003e 	andeq	r0, r0, lr, lsr r0
     3b0:	3c080102 	stfccs	f0, [r8], {2}
     3b4:	02000000 	andeq	r0, r0, #0
     3b8:	00bb0502 	adcseq	r0, fp, r2, lsl #10
     3bc:	02020000 	andeq	r0, r2, #0
     3c0:	00006307 	andeq	r6, r0, r7, lsl #6
     3c4:	01b70300 	undefined instruction 0x01b70300
     3c8:	2d020000 	stccs	0, cr0, [r2]
     3cc:	0000004c 	andeq	r0, r0, ip, asr #32
     3d0:	69050404 	stmdbvs	r5, {r2, sl}
     3d4:	0300746e 	movweq	r7, #1134	; 0x46e
     3d8:	000001b6 	undefined instruction 0x000001b6
     3dc:	005e2e02 	subseq	r2, lr, r2, lsl #28
     3e0:	04020000 	streq	r0, [r2]
     3e4:	00005607 	andeq	r5, r0, r7, lsl #12
     3e8:	07040200 	streq	r0, [r4, -r0, lsl #4]
     3ec:	00000051 	andeq	r0, r0, r1, asr r0
     3f0:	ff050402 	undefined instruction 0xff050402
     3f4:	03000000 	movweq	r0, #0
     3f8:	00000202 	andeq	r0, r0, r2, lsl #4
     3fc:	00532a03 	subseq	r2, r3, r3, lsl #20
     400:	9a030000 	bls	c0408 <CONFIG_LOADER_TEXT-0x1f3fbf8>
     404:	03000001 	movweq	r0, #1
     408:	0000412c 	andeq	r4, r0, ip, lsr #2
     40c:	016a0300 	cmneq	sl, r0, lsl #6
     410:	2d030000 	stccs	0, cr0, [r3]
     414:	00000053 	andeq	r0, r0, r3, asr r0
     418:	06070405 	streq	r0, [r7], -r5, lsl #8
     41c:	01170308 	tsteq	r7, r8, lsl #6
     420:	000000bf 	strheq	r0, [r0], -pc
     424:	0001a607 	andeq	sl, r1, r7, lsl #12
     428:	01180300 	tsteq	r8, r0, lsl #6
     42c:	00000073 	andeq	r0, r0, r3, ror r0
     430:	07002302 	streq	r2, [r0, -r2, lsl #6]
     434:	000001af 	andeq	r0, r0, pc, lsr #3
     438:	89011903 	stmdbhi	r1, {r0, r1, r8, fp, ip}
     43c:	02000000 	andeq	r0, r0, #0
     440:	08000423 	stmdaeq	r0, {r0, r1, r5, sl}
     444:	000001cd 	andeq	r0, r0, sp, asr #3
     448:	97011a03 	strls	r1, [r1, -r3, lsl #20]
     44c:	06000000 	streq	r0, [r0], -r0
     450:	011e030c 	tsteq	lr, ip, lsl #6
     454:	00000102 	andeq	r0, r0, r2, lsl #2
     458:	0001a607 	andeq	sl, r1, r7, lsl #12
     45c:	011f0300 	tsteq	pc, r0, lsl #6
     460:	00000073 	andeq	r0, r0, r3, ror r0
     464:	07002302 	streq	r2, [r0, -r2, lsl #6]
     468:	000001af 	andeq	r0, r0, pc, lsr #3
     46c:	89012003 	stmdbhi	r1, {r0, r1, sp}
     470:	02000000 	andeq	r0, r0, #0
     474:	d7070423 	strle	r0, [r7, -r3, lsr #8]
     478:	03000001 	movweq	r0, #1
     47c:	007e0121 	rsbseq	r0, lr, r1, lsr #2
     480:	23020000 	movwcs	r0, #8192	; 0x2000
     484:	89080008 	stmdbhi	r8, {r3}
     488:	03000001 	movweq	r0, #1
     48c:	00cb0122 	sbceq	r0, fp, r2, lsr #2
     490:	01020000 	tsteq	r2, r0
     494:	00004508 	andeq	r4, r0, r8, lsl #10
     498:	bf010900 	svclt	0x00010900
     49c:	01000001 	tsteq	r0, r1
     4a0:	004c014e 	subeq	r0, ip, lr, asr #2
     4a4:	01c80000 	biceq	r0, r8, r0
     4a8:	01e00200 	mvneq	r0, r0, lsl #4
     4ac:	00320200 	eorseq	r0, r2, r0, lsl #4
     4b0:	01600000 	cmneq	r0, r0
     4b4:	c80a0000 	stmdagt	sl, {}
     4b8:	01000001 	tsteq	r0, r1
     4bc:	0001604e 	andeq	r6, r1, lr, asr #32
     4c0:	00005100 	andeq	r5, r0, r0, lsl #2
     4c4:	01750a00 	cmneq	r5, r0, lsl #20
     4c8:	4e010000 	cdpmi	0, 0, cr0, cr1, cr0, {0}
     4cc:	00000073 	andeq	r0, r0, r3, ror r0
     4d0:	00000064 	andeq	r0, r0, r4, rrx
     4d4:	00015f0a 	andeq	r5, r1, sl, lsl #30
     4d8:	664e0100 	strbvs	r0, [lr], -r0, lsl #2
     4dc:	77000001 	strvc	r0, [r0, -r1]
     4e0:	00000000 	andeq	r0, r0, r0
     4e4:	0102040b 	tsteq	r2, fp, lsl #8
     4e8:	040b0000 	streq	r0, [fp]
     4ec:	0000010e 	andeq	r0, r0, lr, lsl #2
     4f0:	01e00109 	mvneq	r0, r9, lsl #2
     4f4:	23010000 	movwcs	r0, #4096	; 0x1000
     4f8:	00004c01 	andeq	r4, r0, r1, lsl #24
     4fc:	0001e000 	andeq	lr, r1, r0
     500:	0002a402 	andeq	sl, r2, r2, lsl #8
     504:	00008a02 	andeq	r8, r0, r2, lsl #20
     508:	0001e400 	andeq	lr, r1, r0, lsl #8
     50c:	65720c00 	ldrbvs	r0, [r2, #-3072]!	; 0xc00
     510:	2301006c 	movwcs	r0, #4204	; 0x106c
     514:	000001e4 	andeq	r0, r0, r4, ror #3
     518:	000000a9 	andeq	r0, r0, r9, lsr #1
     51c:	0001750a 	andeq	r7, r1, sl, lsl #10
     520:	73230100 	teqvc	r3, #0
     524:	bc000000 	stclt	0, cr0, [r0], {0}
     528:	0a000000 	beq	530 <CONFIG_LOADER_TEXT-0x1fffad0>
     52c:	0000017d 	andeq	r0, r0, sp, ror r1
     530:	01662301 	cmneq	r6, r1, lsl #6
     534:	00f00000 	rscseq	r0, r0, r0
     538:	940d0000 	strls	r0, [sp]
     53c:	01000001 	tsteq	r0, r1
     540:	0001ea25 	andeq	lr, r1, r5, lsr #20
     544:	00011900 	andeq	r1, r1, r0, lsl #18
     548:	6d740e00 	ldclvs	14, cr0, [r4]
     54c:	25010070 	strcs	r0, [r1, #-112]	; 0x70
     550:	00000073 	andeq	r0, r0, r3, ror r0
     554:	00000137 	andeq	r0, r0, r7, lsr r1
     558:	0001d90d 	andeq	sp, r1, sp, lsl #18
     55c:	7e260100 	sufvcs	f0, f6, f0
     560:	4a000000 	bmi	568 <CONFIG_LOADER_TEXT-0x1fffa98>
     564:	00000001 	andeq	r0, r0, r1
     568:	00bf040b 	adcseq	r0, pc, fp, lsl #8
     56c:	040b0000 	streq	r0, [fp]
     570:	00000073 	andeq	r0, r0, r3, ror r0
     574:	0002f800 	andeq	pc, r2, r0, lsl #16
     578:	59000200 	stmdbpl	r0, {r9}
     57c:	04000002 	streq	r0, [r0], #-2
     580:	00009a01 	andeq	r9, r0, r1, lsl #20
     584:	02130100 	andseq	r0, r3, #0
     588:	00c50000 	sbceq	r0, r5, r0
     58c:	02a40000 	adceq	r0, r4, #0
     590:	032c0200 	teqeq	ip, #0
     594:	025d0200 	subseq	r0, sp, #0
     598:	01020000 	tsteq	r2, r0
     59c:	00003e06 	andeq	r3, r0, r6, lsl #28
     5a0:	08010200 	stmdaeq	r1, {r9}
     5a4:	0000003c 	andeq	r0, r0, ip, lsr r0
     5a8:	bb050202 	bllt	140db8 <CONFIG_LOADER_TEXT-0x1ebf248>
     5ac:	02000000 	andeq	r0, r0, #0
     5b0:	00630702 	rsbeq	r0, r3, r2, lsl #14
     5b4:	04030000 	streq	r0, [r3]
     5b8:	746e6905 	strbtvc	r6, [lr], #-2309	; 0x905
     5bc:	07040200 	streq	r0, [r4, -r0, lsl #4]
     5c0:	00000056 	andeq	r0, r0, r6, asr r0
     5c4:	00001404 	andeq	r1, r0, r4, lsl #8
     5c8:	5a300200 	bpl	c00dd0 <CONFIG_LOADER_TEXT-0x13ff230>
     5cc:	02000000 	andeq	r0, r0, #0
     5d0:	00510704 	subseq	r0, r1, r4, lsl #14
     5d4:	1a040000 	bne	1005dc <CONFIG_LOADER_TEXT-0x1effa24>
     5d8:	02000001 	andeq	r0, r0, #1
     5dc:	00005a31 	andeq	r5, r0, r1, lsr sl
     5e0:	01310400 	teqeq	r1, r0, lsl #8
     5e4:	32020000 	andcc	r0, r2, #0
     5e8:	0000005a 	andeq	r0, r0, sl, asr r0
     5ec:	007d0405 	rsbseq	r0, sp, r5, lsl #8
     5f0:	01060000 	tsteq	r6, r0
     5f4:	00011b04 	andeq	r1, r1, r4, lsl #22
     5f8:	48590300 	ldmdami	r9, {r8, r9}^
     5fc:	02000000 	andeq	r0, r0, #0
     600:	00ff0504 	rscseq	r0, pc, r4, lsl #10
     604:	34070000 	strcc	r0, [r7]
     608:	10000000 	andne	r0, r0, r0
     60c:	00d63004 	sbcseq	r3, r6, r4
     610:	76080000 	strvc	r0, [r8], -r0
     614:	04000000 	streq	r0, [r0]
     618:	00004131 	andeq	r4, r0, r1, lsr r1
     61c:	00230200 	eoreq	r0, r3, r0, lsl #4
     620:	00007e08 	andeq	r7, r0, r8, lsl #28
     624:	41320400 	teqmi	r2, r0, lsl #8
     628:	02000000 	andeq	r0, r0, #0
     62c:	21080423 	tstcs	r8, r3, lsr #8
     630:	04000000 	streq	r0, [r0]
     634:	00004133 	andeq	r4, r0, r3, lsr r1
     638:	08230200 	stmdaeq	r3!, {r9}
     63c:	00002808 	andeq	r2, r0, r8, lsl #16
     640:	41340400 	teqmi	r4, r0, lsl #8
     644:	02000000 	andeq	r0, r0, #0
     648:	07000c23 	streq	r0, [r0, -r3, lsr #24]
     64c:	00000295 	muleq	r0, r5, r2
     650:	613c0430 	teqvs	ip, r0, lsr r4
     654:	08000001 	stmdaeq	r0, {r0}
     658:	000004e9 	andeq	r0, r0, r9, ror #9
     65c:	01613d04 	cmneq	r1, r4, lsl #26
     660:	23020000 	movwcs	r0, #8192	; 0x2000
     664:	00070800 	andeq	r0, r7, r0, lsl #16
     668:	3e040000 	cdpcc	0, 0, cr0, cr4, cr0, {0}
     66c:	0000004f 	andeq	r0, r0, pc, asr #32
     670:	08102302 	ldmdaeq	r0, {r1, r8, r9, sp}
     674:	00000494 	muleq	r0, r4, r4
     678:	007f3f04 	rsbseq	r3, pc, r4, lsl #30
     67c:	23020000 	movwcs	r0, #8192	; 0x2000
     680:	03020814 	movweq	r0, #10260	; 0x2814
     684:	40040000 	andmi	r0, r4, r0
     688:	0000006c 	andeq	r0, r0, ip, rrx
     68c:	08182302 	ldmdaeq	r8, {r1, r8, r9, sp}
     690:	0000001c 	andeq	r0, r0, ip, lsl r0
     694:	006c4104 	rsbeq	r4, ip, r4, lsl #2
     698:	23020000 	movwcs	r0, #8192	; 0x2000
     69c:	002f081c 	eoreq	r0, pc, ip, lsl r8
     6a0:	42040000 	andmi	r0, r4, #0
     6a4:	0000006c 	andeq	r0, r0, ip, rrx
     6a8:	08202302 	stmdaeq	r0!, {r1, r8, r9, sp}
     6ac:	000000b4 	strheq	r0, [r0], -r4
     6b0:	007f4304 	rsbseq	r4, pc, r4, lsl #6
     6b4:	23020000 	movwcs	r0, #8192	; 0x2000
     6b8:	004a0824 	subeq	r0, sl, r4, lsr #16
     6bc:	44040000 	strmi	r0, [r4]
     6c0:	0000007f 	andeq	r0, r0, pc, ror r0
     6c4:	08282302 	stmdaeq	r8!, {r1, r8, r9, sp}
     6c8:	00000094 	muleq	r0, r4, r0
     6cc:	007f4504 	rsbseq	r4, pc, r4, lsl #10
     6d0:	23020000 	movwcs	r0, #8192	; 0x2000
     6d4:	7409002c 	strvc	r0, [r9], #-44	; 0x2c
     6d8:	71000001 	tstvc	r0, r1
     6dc:	0a000001 	beq	6e8 <CONFIG_LOADER_TEXT-0x1fff918>
     6e0:	00000171 	andeq	r0, r0, r1, ror r1
     6e4:	040b000f 	streq	r0, [fp], #-15
     6e8:	08010207 	stmdaeq	r1, {r0, r1, r2, r9}
     6ec:	00000045 	andeq	r0, r0, r5, asr #32
     6f0:	00012207 	andeq	r2, r1, r7, lsl #4
     6f4:	4c040c00 	stcmi	12, cr0, [r4], {0}
     6f8:	000001b2 	undefined instruction 0x000001b2
     6fc:	0002c608 	andeq	ip, r2, r8, lsl #12
     700:	4f4d0400 	svcmi	0x004d0400
     704:	02000000 	andeq	r0, r0, #0
     708:	94080023 	strls	r0, [r8], #-35	; 0x23
     70c:	04000004 	streq	r0, [r0], #-4
     710:	0000614e 	andeq	r6, r0, lr, asr #2
     714:	04230200 	strteq	r0, [r3], #-512	; 0x200
     718:	0003c808 	andeq	ip, r3, r8, lsl #16
     71c:	414f0400 	cmpmi	pc, r0, lsl #8
     720:	02000000 	andeq	r0, r0, #0
     724:	0c000823 	stceq	8, cr0, [r0], {35}	; 0x23
     728:	00000233 	andeq	r0, r0, r3, lsr r2
     72c:	5e040114 	mcrpl	1, 0, r0, cr4, cr4, {0}
     730:	00000234 	andeq	r0, r0, r4, lsr r2
     734:	00008608 	andeq	r8, r0, r8, lsl #12
     738:	915f0400 	cmpls	pc, r0, lsl #8
     73c:	02000000 	andeq	r0, r0, #0
     740:	720d0023 	andvc	r0, sp, #35	; 0x23
     744:	04006d61 	streq	r6, [r0], #-3425	; 0xd61
     748:	00023460 	andeq	r3, r2, r0, ror #8
     74c:	10230200 	eorne	r0, r3, r0, lsl #4
     750:	00000c08 	andeq	r0, r0, r8, lsl #24
     754:	41610400 	cmnmi	r1, r0, lsl #8
     758:	02000000 	andeq	r0, r0, #0
     75c:	87087023 	strhi	r7, [r8, -r3, lsr #32]
     760:	04000002 	streq	r0, [r0], #-2
     764:	00017b62 	andeq	r7, r1, r2, ror #22
     768:	74230200 	strtvc	r0, [r3], #-512	; 0x200
     76c:	0000f608 	andeq	pc, r0, r8, lsl #12
     770:	41630400 	cmnmi	r3, r0, lsl #8
     774:	03000000 	movweq	r0, #0
     778:	08018023 	stmdaeq	r1, {r0, r1, r5, pc}
     77c:	00000000 	andeq	r0, r0, r0
     780:	00d66404 	sbcseq	r6, r6, r4, lsl #8
     784:	23030000 	movwcs	r0, #12288	; 0x3000
     788:	2a080184 	bcs	200da0 <CONFIG_LOADER_TEXT-0x1dff260>
     78c:	04000001 	streq	r0, [r0], #-1
     790:	0000d665 	andeq	sp, r0, r5, ror #12
     794:	b4230300 	strtlt	r0, [r3], #-768	; 0x300
     798:	00f90801 	rscseq	r0, r9, r1, lsl #16
     79c:	66040000 	strvs	r0, [r4], -r0
     7a0:	00000244 	andeq	r0, r0, r4, asr #4
     7a4:	01e42303 	mvneq	r2, r3, lsl #6
     7a8:	017b0900 	cmneq	fp, r0, lsl #18
     7ac:	02440000 	subeq	r0, r4, #0
     7b0:	710a0000 	tstvc	sl, r0
     7b4:	07000001 	streq	r0, [r0, -r1]
     7b8:	00d60900 	sbcseq	r0, r6, r0, lsl #18
     7bc:	02540000 	subseq	r0, r4, #0
     7c0:	710a0000 	tstvc	sl, r0
     7c4:	00000001 	andeq	r0, r0, r1
     7c8:	02210400 	eoreq	r0, r1, #0
     7cc:	27010000 	strcs	r0, [r1, -r0]
     7d0:	00000077 	andeq	r0, r0, r7, ror r0
     7d4:	020d010e 	andeq	r0, sp, #-2147483645	; 0x80000003
     7d8:	65010000 	strvs	r0, [r1]
     7dc:	02790101 	rsbseq	r0, r9, #1073741824	; 0x40000000
     7e0:	6d0f0000 	stcvs	0, cr0, [pc]
     7e4:	01006773 	tsteq	r0, r3, ror r7
     7e8:	00027965 	andeq	r7, r2, r5, ror #18
     7ec:	04050000 	streq	r0, [r5]
     7f0:	0000027f 	andeq	r0, r0, pc, ror r2
     7f4:	00017410 	andeq	r7, r1, r0, lsl r4
     7f8:	025f1100 	subseq	r1, pc, #0
     7fc:	02a40000 	adceq	r0, r4, #0
     800:	02bc0200 	adcseq	r0, ip, #0
     804:	015d0200 	cmpeq	sp, r0, lsl #4
     808:	02a30000 	adceq	r0, r3, #0
     80c:	6d120000 	ldcvs	0, cr0, [r2]
     810:	7c000002 	stcvc	0, cr0, [r0], {2}
     814:	00000001 	andeq	r0, r0, r1
     818:	02290113 	eoreq	r0, r9, #-1073741820	; 0xc0000004
     81c:	35010000 	strcc	r0, [r1]
     820:	00004101 	andeq	r4, r0, r1, lsl #2
     824:	0002bc00 	andeq	fp, r2, r0, lsl #24
     828:	00032c02 	andeq	r2, r3, r2, lsl #24
     82c:	00019a02 	andeq	r9, r1, r2, lsl #20
     830:	0002e300 	andeq	lr, r2, r0, lsl #6
     834:	03021400 	movweq	r1, #9216	; 0x2400
     838:	37010000 	strcc	r0, [r1, -r0]
     83c:	00000254 	andeq	r0, r0, r4, asr r2
     840:	5f155401 	svcpl	0x00155401
     844:	08000002 	stmdaeq	r0, {r1}
     848:	2c020003 	stccs	0, cr0, [r2], {3}
     84c:	01020003 	tsteq	r2, r3
     850:	0299165c 	addseq	r1, r9, #96468992	; 0x5c00000
     854:	00000000 	andeq	r0, r0, r0
     858:	00023317 	andeq	r3, r2, r7, lsl r3
     85c:	f0370500 	undefined instruction 0xf0370500
     860:	01000002 	tsteq	r0, r2
     864:	02f51001 	rscseq	r1, r5, #1
     868:	04050000 	streq	r0, [r5]
     86c:	000001b2 	undefined instruction 0x000001b2
     870:	00027900 	andeq	r7, r2, r0, lsl #18
     874:	85000200 	strhi	r0, [r0, #-512]	; 0x200
     878:	04000003 	streq	r0, [r0], #-3
     87c:	00009a01 	andeq	r9, r0, r1, lsl #20
     880:	023c0100 	eorseq	r0, ip, #0
     884:	00c50000 	sbceq	r0, r5, r0
     888:	032c0000 	teqeq	ip, #0
     88c:	03300200 	teqeq	r0, #0
     890:	037d0200 	cmneq	sp, #0
     894:	01020000 	tsteq	r2, r0
     898:	00003e06 	andeq	r3, r0, r6, lsl #28
     89c:	08010200 	stmdaeq	r1, {r9}
     8a0:	0000003c 	andeq	r0, r0, ip, lsr r0
     8a4:	bb050202 	bllt	1410b4 <CONFIG_LOADER_TEXT-0x1ebef4c>
     8a8:	02000000 	andeq	r0, r0, #0
     8ac:	00630702 	rsbeq	r0, r3, r2, lsl #14
     8b0:	04030000 	streq	r0, [r3]
     8b4:	746e6905 	strbtvc	r6, [lr], #-2309	; 0x905
     8b8:	07040200 	streq	r0, [r4, -r0, lsl #4]
     8bc:	00000056 	andeq	r0, r0, r6, asr r0
     8c0:	00001404 	andeq	r1, r0, r4, lsl #8
     8c4:	5a300200 	bpl	c010cc <CONFIG_LOADER_TEXT-0x13fef34>
     8c8:	02000000 	andeq	r0, r0, #0
     8cc:	00510704 	subseq	r0, r1, r4, lsl #14
     8d0:	1a040000 	bne	1008d8 <CONFIG_LOADER_TEXT-0x1eff728>
     8d4:	02000001 	andeq	r0, r0, #1
     8d8:	00005a31 	andeq	r5, r0, r1, lsr sl
     8dc:	01310400 	teqeq	r1, r0, lsl #8
     8e0:	32020000 	andcc	r0, r2, #0
     8e4:	0000005a 	andeq	r0, r0, sl, asr r0
     8e8:	00011b04 	andeq	r1, r1, r4, lsl #22
     8ec:	48590300 	ldmdami	r9, {r8, r9}^
     8f0:	02000000 	andeq	r0, r0, #0
     8f4:	00ff0504 	rscseq	r0, pc, r4, lsl #10
     8f8:	34050000 	strcc	r0, [r5]
     8fc:	10000000 	andne	r0, r0, r0
     900:	00ce3004 	sbceq	r3, lr, r4
     904:	76060000 	strvc	r0, [r6], -r0
     908:	04000000 	streq	r0, [r0]
     90c:	00004131 	andeq	r4, r0, r1, lsr r1
     910:	00230200 	eoreq	r0, r3, r0, lsl #4
     914:	00007e06 	andeq	r7, r0, r6, lsl #28
     918:	41320400 	teqmi	r2, r0, lsl #8
     91c:	02000000 	andeq	r0, r0, #0
     920:	21060423 	tstcs	r6, r3, lsr #8
     924:	04000000 	streq	r0, [r0]
     928:	00004133 	andeq	r4, r0, r3, lsr r1
     92c:	08230200 	stmdaeq	r3!, {r9}
     930:	00002806 	andeq	r2, r0, r6, lsl #16
     934:	41340400 	teqmi	r4, r0, lsl #8
     938:	02000000 	andeq	r0, r0, #0
     93c:	05000c23 	streq	r0, [r0, #-3107]	; 0xc23
     940:	00000295 	muleq	r0, r5, r2
     944:	593c0430 	ldmdbpl	ip!, {r4, r5, sl}
     948:	06000001 	streq	r0, [r0], -r1
     94c:	000004e9 	andeq	r0, r0, r9, ror #9
     950:	01593d04 	cmpeq	r9, r4, lsl #26
     954:	23020000 	movwcs	r0, #8192	; 0x2000
     958:	00070600 	andeq	r0, r7, r0, lsl #12
     95c:	3e040000 	cdpcc	0, 0, cr0, cr4, cr0, {0}
     960:	0000004f 	andeq	r0, r0, pc, asr #32
     964:	06102302 	ldreq	r2, [r0], -r2, lsl #6
     968:	00000494 	muleq	r0, r4, r4
     96c:	00773f04 	rsbseq	r3, r7, r4, lsl #30
     970:	23020000 	movwcs	r0, #8192	; 0x2000
     974:	03020614 	movweq	r0, #9748	; 0x2614
     978:	40040000 	andmi	r0, r4, r0
     97c:	0000006c 	andeq	r0, r0, ip, rrx
     980:	06182302 	ldreq	r2, [r8], -r2, lsl #6
     984:	0000001c 	andeq	r0, r0, ip, lsl r0
     988:	006c4104 	rsbeq	r4, ip, r4, lsl #2
     98c:	23020000 	movwcs	r0, #8192	; 0x2000
     990:	002f061c 	eoreq	r0, pc, ip, lsl r6
     994:	42040000 	andmi	r0, r4, #0
     998:	0000006c 	andeq	r0, r0, ip, rrx
     99c:	06202302 	strteq	r2, [r0], -r2, lsl #6
     9a0:	000000b4 	strheq	r0, [r0], -r4
     9a4:	00774304 	rsbseq	r4, r7, r4, lsl #6
     9a8:	23020000 	movwcs	r0, #8192	; 0x2000
     9ac:	004a0624 	subeq	r0, sl, r4, lsr #12
     9b0:	44040000 	strmi	r0, [r4]
     9b4:	00000077 	andeq	r0, r0, r7, ror r0
     9b8:	06282302 	strteq	r2, [r8], -r2, lsl #6
     9bc:	00000094 	muleq	r0, r4, r0
     9c0:	00774504 	rsbseq	r4, r7, r4, lsl #10
     9c4:	23020000 	movwcs	r0, #8192	; 0x2000
     9c8:	6c07002c 	stcvs	0, cr0, [r7], {44}	; 0x2c
     9cc:	69000001 	stmdbvs	r0, {r0}
     9d0:	08000001 	stmdaeq	r0, {r0}
     9d4:	00000169 	andeq	r0, r0, r9, ror #2
     9d8:	0409000f 	streq	r0, [r9], #-15
     9dc:	08010207 	stmdaeq	r1, {r0, r1, r2, r9}
     9e0:	00000045 	andeq	r0, r0, r5, asr #32
     9e4:	00012205 	andeq	r2, r1, r5, lsl #4
     9e8:	4c040c00 	stcmi	12, cr0, [r4], {0}
     9ec:	000001aa 	andeq	r0, r0, sl, lsr #3
     9f0:	0002c606 	andeq	ip, r2, r6, lsl #12
     9f4:	4f4d0400 	svcmi	0x004d0400
     9f8:	02000000 	andeq	r0, r0, #0
     9fc:	94060023 	strls	r0, [r6], #-35	; 0x23
     a00:	04000004 	streq	r0, [r0], #-4
     a04:	0000614e 	andeq	r6, r0, lr, asr #2
     a08:	04230200 	strteq	r0, [r3], #-512	; 0x200
     a0c:	0003c806 	andeq	ip, r3, r6, lsl #16
     a10:	414f0400 	cmpmi	pc, r0, lsl #8
     a14:	02000000 	andeq	r0, r0, #0
     a18:	0a000823 	beq	2aac <CONFIG_LOADER_TEXT-0x1ffd554>
     a1c:	00000233 	andeq	r0, r0, r3, lsr r2
     a20:	5e040114 	mcrpl	1, 0, r0, cr4, cr4, {0}
     a24:	0000022c 	andeq	r0, r0, ip, lsr #4
     a28:	00008606 	andeq	r8, r0, r6, lsl #12
     a2c:	895f0400 	ldmdbhi	pc, {sl}^
     a30:	02000000 	andeq	r0, r0, #0
     a34:	720b0023 	andvc	r0, fp, #35	; 0x23
     a38:	04006d61 	streq	r6, [r0], #-3425	; 0xd61
     a3c:	00022c60 	andeq	r2, r2, r0, ror #24
     a40:	10230200 	eorne	r0, r3, r0, lsl #4
     a44:	00000c06 	andeq	r0, r0, r6, lsl #24
     a48:	41610400 	cmnmi	r1, r0, lsl #8
     a4c:	02000000 	andeq	r0, r0, #0
     a50:	87067023 	strhi	r7, [r6, -r3, lsr #32]
     a54:	04000002 	streq	r0, [r0], #-2
     a58:	00017362 	andeq	r7, r1, r2, ror #6
     a5c:	74230200 	strtvc	r0, [r3], #-512	; 0x200
     a60:	0000f606 	andeq	pc, r0, r6, lsl #12
     a64:	41630400 	cmnmi	r3, r0, lsl #8
     a68:	03000000 	movweq	r0, #0
     a6c:	06018023 	streq	r8, [r1], -r3, lsr #32
     a70:	00000000 	andeq	r0, r0, r0
     a74:	00ce6404 	sbceq	r6, lr, r4, lsl #8
     a78:	23030000 	movwcs	r0, #12288	; 0x3000
     a7c:	2a060184 	bcs	181094 <CONFIG_LOADER_TEXT-0x1e7ef6c>
     a80:	04000001 	streq	r0, [r0], #-1
     a84:	0000ce65 	andeq	ip, r0, r5, ror #28
     a88:	b4230300 	strtlt	r0, [r3], #-768	; 0x300
     a8c:	00f90601 	rscseq	r0, r9, r1, lsl #12
     a90:	66040000 	strvs	r0, [r4], -r0
     a94:	0000023c 	andeq	r0, r0, ip, lsr r2
     a98:	01e42303 	mvneq	r2, r3, lsl #6
     a9c:	01730700 	cmneq	r3, r0, lsl #14
     aa0:	023c0000 	eorseq	r0, ip, #0
     aa4:	69080000 	stmdbvs	r8, {}
     aa8:	07000001 	streq	r0, [r0, -r1]
     aac:	00ce0700 	sbceq	r0, lr, r0, lsl #14
     ab0:	024c0000 	subeq	r0, ip, #0
     ab4:	69080000 	stmdbvs	r8, {}
     ab8:	00000001 	andeq	r0, r0, r1
     abc:	2e010c00 	cdpcs	12, 0, cr0, cr1, cr0, {0}
     ac0:	01000002 	tsteq	r0, r2
     ac4:	032c015c 	teqeq	ip, #23
     ac8:	03300200 	teqeq	r0, #0
     acc:	5d010200 	sfmpl	f0, 4, [r1]	; (stcpl 2, cr0, [r1])
     ad0:	0002330d 	andeq	r3, r2, sp, lsl #6
     ad4:	712a0100 	teqvc	sl, r0, lsl #2
     ad8:	01000002 	tsteq	r0, r2
     adc:	12040305 	andne	r0, r4, #335544320	; 0x14000000
     ae0:	760e0200 	strvc	r0, [lr], -r0, lsl #4
     ae4:	0f000002 	svceq	0x00000002
     ae8:	0001aa04 	andeq	sl, r1, r4, lsl #20
     aec:	04840000 	streq	r0, [r4]
     af0:	00020000 	andeq	r0, r2, r0
     af4:	00000449 	andeq	r0, r0, r9, asr #8
     af8:	009a0104 	addseq	r0, sl, r4, lsl #2
     afc:	56010000 	strpl	r0, [r1], -r0
     b00:	c5000002 	strgt	r0, [r0, #-2]
     b04:	30000000 	andcc	r0, r0, r0
     b08:	58020003 	stmdapl	r2, {r0, r1}
     b0c:	4c020006 	stcmi	0, cr0, [r2], {6}
     b10:	02000004 	andeq	r0, r0, #4
     b14:	003e0601 	eorseq	r0, lr, r1, lsl #12
     b18:	01020000 	tsteq	r2, r0
     b1c:	00003c08 	andeq	r3, r0, r8, lsl #24
     b20:	05020200 	streq	r0, [r2, #-512]	; 0x200
     b24:	000000bb 	strheq	r0, [r0], -fp
     b28:	63070202 	movwvs	r0, #29186	; 0x7202
     b2c:	03000000 	movweq	r0, #0
     b30:	6e690504 	cdpvs	5, 6, cr0, cr9, cr4, {0}
     b34:	04020074 	streq	r0, [r2], #-116	; 0x74
     b38:	00005607 	andeq	r5, r0, r7, lsl #12
     b3c:	00140400 	andseq	r0, r4, r0, lsl #8
     b40:	30020000 	andcc	r0, r2, r0
     b44:	0000005a 	andeq	r0, r0, sl, asr r0
     b48:	51070402 	tstpl	r7, r2, lsl #8
     b4c:	04000000 	streq	r0, [r0]
     b50:	0000011a 	andeq	r0, r0, sl, lsl r1
     b54:	005a3102 	subseq	r3, sl, r2, lsl #2
     b58:	31040000 	tstcc	r4, r0
     b5c:	02000001 	andeq	r0, r0, #1
     b60:	00005a32 	andeq	r5, r0, r2, lsr sl
     b64:	011b0400 	tsteq	fp, r0, lsl #8
     b68:	59030000 	stmdbpl	r3, {}
     b6c:	00000048 	andeq	r0, r0, r8, asr #32
     b70:	ff050402 	undefined instruction 0xff050402
     b74:	05000000 	streq	r0, [r0]
     b78:	00000034 	andeq	r0, r0, r4, lsr r0
     b7c:	ce300410 	mrcgt	4, 1, r0, cr0, cr0, {0}
     b80:	06000000 	streq	r0, [r0], -r0
     b84:	00000076 	andeq	r0, r0, r6, ror r0
     b88:	00413104 	subeq	r3, r1, r4, lsl #2
     b8c:	23020000 	movwcs	r0, #8192	; 0x2000
     b90:	007e0600 	rsbseq	r0, lr, r0, lsl #12
     b94:	32040000 	andcc	r0, r4, #0
     b98:	00000041 	andeq	r0, r0, r1, asr #32
     b9c:	06042302 	streq	r2, [r4], -r2, lsl #6
     ba0:	00000021 	andeq	r0, r0, r1, lsr #32
     ba4:	00413304 	subeq	r3, r1, r4, lsl #6
     ba8:	23020000 	movwcs	r0, #8192	; 0x2000
     bac:	00280608 	eoreq	r0, r8, r8, lsl #12
     bb0:	34040000 	strcc	r0, [r4]
     bb4:	00000041 	andeq	r0, r0, r1, asr #32
     bb8:	000c2302 	andeq	r2, ip, r2, lsl #6
     bbc:	00029505 	andeq	r9, r2, r5, lsl #10
     bc0:	3c043000 	stccc	0, cr3, [r4], {0}
     bc4:	00000159 	andeq	r0, r0, r9, asr r1
     bc8:	0004e906 	andeq	lr, r4, r6, lsl #18
     bcc:	593d0400 	ldmdbpl	sp!, {sl}
     bd0:	02000001 	andeq	r0, r0, #1
     bd4:	07060023 	streq	r0, [r6, -r3, lsr #32]
     bd8:	04000000 	streq	r0, [r0]
     bdc:	00004f3e 	andeq	r4, r0, lr, lsr pc
     be0:	10230200 	eorne	r0, r3, r0, lsl #4
     be4:	00049406 	andeq	r9, r4, r6, lsl #8
     be8:	773f0400 	ldrvc	r0, [pc, -r0, lsl #8]!
     bec:	02000000 	andeq	r0, r0, #0
     bf0:	02061423 	andeq	r1, r6, #587202560	; 0x23000000
     bf4:	04000003 	streq	r0, [r0], #-3
     bf8:	00006c40 	andeq	r6, r0, r0, asr #24
     bfc:	18230200 	stmdane	r3!, {r9}
     c00:	00001c06 	andeq	r1, r0, r6, lsl #24
     c04:	6c410400 	cfstrdvs	mvd0, [r1], {0}
     c08:	02000000 	andeq	r0, r0, #0
     c0c:	2f061c23 	svccs	0x00061c23
     c10:	04000000 	streq	r0, [r0]
     c14:	00006c42 	andeq	r6, r0, r2, asr #24
     c18:	20230200 	eorcs	r0, r3, r0, lsl #4
     c1c:	0000b406 	andeq	fp, r0, r6, lsl #8
     c20:	77430400 	strbvc	r0, [r3, -r0, lsl #8]
     c24:	02000000 	andeq	r0, r0, #0
     c28:	4a062423 	bmi	189cbc <CONFIG_LOADER_TEXT-0x1e76344>
     c2c:	04000000 	streq	r0, [r0]
     c30:	00007744 	andeq	r7, r0, r4, asr #14
     c34:	28230200 	stmdacs	r3!, {r9}
     c38:	00009406 	andeq	r9, r0, r6, lsl #8
     c3c:	77450400 	strbvc	r0, [r5, -r0, lsl #8]
     c40:	02000000 	andeq	r0, r0, #0
     c44:	07002c23 	streq	r2, [r0, -r3, lsr #24]
     c48:	0000016c 	andeq	r0, r0, ip, ror #2
     c4c:	00000169 	andeq	r0, r0, r9, ror #2
     c50:	00016908 	andeq	r6, r1, r8, lsl #18
     c54:	09000f00 	stmdbeq	r0, {r8, r9, sl, fp}
     c58:	01020704 	tsteq	r2, r4, lsl #14
     c5c:	00004508 	andeq	r4, r0, r8, lsl #10
     c60:	01220500 	teqeq	r2, r0, lsl #10
     c64:	040c0000 	streq	r0, [ip]
     c68:	0001aa4c 	andeq	sl, r1, ip, asr #20
     c6c:	02c60600 	sbceq	r0, r6, #0
     c70:	4d040000 	stcmi	0, cr0, [r4]
     c74:	0000004f 	andeq	r0, r0, pc, asr #32
     c78:	06002302 	streq	r2, [r0], -r2, lsl #6
     c7c:	00000494 	muleq	r0, r4, r4
     c80:	00614e04 	rsbeq	r4, r1, r4, lsl #28
     c84:	23020000 	movwcs	r0, #8192	; 0x2000
     c88:	03c80604 	biceq	r0, r8, #4194304	; 0x400000
     c8c:	4f040000 	svcmi	0x00040000
     c90:	00000041 	andeq	r0, r0, r1, asr #32
     c94:	00082302 	andeq	r2, r8, r2, lsl #6
     c98:	0002330a 	andeq	r3, r2, sl, lsl #6
     c9c:	04011400 	streq	r1, [r1], #-1024	; 0x400
     ca0:	00022c5e 	andeq	r2, r2, lr, asr ip
     ca4:	00860600 	addeq	r0, r6, r0, lsl #12
     ca8:	5f040000 	svcpl	0x00040000
     cac:	00000089 	andeq	r0, r0, r9, lsl #1
     cb0:	0b002302 	bleq	98c0 <CONFIG_LOADER_TEXT-0x1ff6740>
     cb4:	006d6172 	rsbeq	r6, sp, r2, ror r1
     cb8:	022c6004 	eoreq	r6, ip, #4
     cbc:	23020000 	movwcs	r0, #8192	; 0x2000
     cc0:	000c0610 	andeq	r0, ip, r0, lsl r6
     cc4:	61040000 	tstvs	r4, r0
     cc8:	00000041 	andeq	r0, r0, r1, asr #32
     ccc:	06702302 	ldrbteq	r2, [r0], -r2, lsl #6
     cd0:	00000287 	andeq	r0, r0, r7, lsl #5
     cd4:	01736204 	cmneq	r3, r4, lsl #4
     cd8:	23020000 	movwcs	r0, #8192	; 0x2000
     cdc:	00f60674 	rscseq	r0, r6, r4, ror r6
     ce0:	63040000 	movwvs	r0, #16384	; 0x4000
     ce4:	00000041 	andeq	r0, r0, r1, asr #32
     ce8:	01802303 	orreq	r2, r0, r3, lsl #6
     cec:	00000006 	andeq	r0, r0, r6
     cf0:	ce640400 	cdpgt	4, 6, cr0, cr4, cr0, {0}
     cf4:	03000000 	movweq	r0, #0
     cf8:	06018423 	streq	r8, [r1], -r3, lsr #8
     cfc:	0000012a 	andeq	r0, r0, sl, lsr #2
     d00:	00ce6504 	sbceq	r6, lr, r4, lsl #10
     d04:	23030000 	movwcs	r0, #12288	; 0x3000
     d08:	f90601b4 	undefined instruction 0xf90601b4
     d0c:	04000000 	streq	r0, [r0]
     d10:	00023c66 	andeq	r3, r2, r6, ror #24
     d14:	e4230300 	strt	r0, [r3], #-768	; 0x300
     d18:	73070001 	movwvc	r0, #28673	; 0x7001
     d1c:	3c000001 	stccc	0, cr0, [r0], {1}
     d20:	08000002 	stmdaeq	r0, {r1}
     d24:	00000169 	andeq	r0, r0, r9, ror #2
     d28:	ce070007 	cdpgt	0, 0, cr0, cr7, cr7, {0}
     d2c:	4c000000 	stcmi	0, cr0, [r0], {0}
     d30:	08000002 	stmdaeq	r0, {r1}
     d34:	00000169 	andeq	r0, r0, r9, ror #2
     d38:	9c050000 	stcls	0, cr0, [r5], {0}
     d3c:	3c000002 	stccc	0, cr0, [r0], {2}
     d40:	02bb3405 	adcseq	r3, fp, #83886080	; 0x5000000
     d44:	b1060000 	tstlt	r6, r0
     d48:	05000002 	streq	r0, [r0, #-2]
     d4c:	00015935 	andeq	r5, r1, r5, lsr r9
     d50:	00230200 	eoreq	r0, r3, r0, lsl #4
     d54:	00026406 	andeq	r6, r2, r6, lsl #8
     d58:	bb360500 	bllt	d82160 <CONFIG_LOADER_TEXT-0x127dea0>
     d5c:	02000002 	andeq	r0, r0, #2
     d60:	7a061023 	bvc	184df4 <CONFIG_LOADER_TEXT-0x1e7b20c>
     d64:	05000002 	streq	r0, [r0, #-2]
     d68:	0002cb37 	andeq	ip, r2, r7, lsr fp
     d6c:	1c230200 	sfmne	f0, 4, [r3]	; (stcne 2, cr0, [r3])
     d70:	0002aa06 	andeq	sl, r2, r6, lsl #20
     d74:	cb380500 	blgt	e0217c <CONFIG_LOADER_TEXT-0x11fde84>
     d78:	02000002 	andeq	r0, r0, #2
     d7c:	4e062223 	cdpmi	2, 0, cr2, cr6, cr3, {1}
     d80:	05000002 	streq	r0, [r0, #-2]
     d84:	0002db39 	andeq	sp, r2, r9, lsr fp
     d88:	28230200 	stmdacs	r3!, {r9}
     d8c:	0002b906 	andeq	fp, r2, r6, lsl #18
     d90:	eb3a0500 	bl	e82198 <CONFIG_LOADER_TEXT-0x117de68>
     d94:	02000002 	andeq	r0, r0, #2
     d98:	72063023 	andvc	r3, r6, #35	; 0x23
     d9c:	05000002 	streq	r0, [r0, #-2]
     da0:	0002fb3c 	andeq	pc, r2, ip, lsr fp
     da4:	3a230200 	bcc	8c15ac <CONFIG_LOADER_TEXT-0x173ea54>
     da8:	016c0700 	cmneq	ip, r0, lsl #14
     dac:	02cb0000 	sbceq	r0, fp, #0
     db0:	69080000 	stmdbvs	r8, {}
     db4:	0b000001 	bleq	dc0 <CONFIG_LOADER_TEXT-0x1fff240>
     db8:	016c0700 	cmneq	ip, r0, lsl #14
     dbc:	02db0000 	sbcseq	r0, fp, #0
     dc0:	69080000 	stmdbvs	r8, {}
     dc4:	05000001 	streq	r0, [r0, #-1]
     dc8:	016c0700 	cmneq	ip, r0, lsl #14
     dcc:	02eb0000 	rsceq	r0, fp, #0
     dd0:	69080000 	stmdbvs	r8, {}
     dd4:	07000001 	streq	r0, [r0, -r1]
     dd8:	016c0700 	cmneq	ip, r0, lsl #14
     ddc:	02fb0000 	rscseq	r0, fp, #0
     de0:	69080000 	stmdbvs	r8, {}
     de4:	09000001 	stmdbeq	r0, {r0}
     de8:	016c0700 	cmneq	ip, r0, lsl #14
     dec:	030b0000 	movweq	r0, #45056	; 0xb000
     df0:	69080000 	stmdbvs	r8, {}
     df4:	01000001 	tsteq	r0, r1
     df8:	02810c00 	addeq	r0, r1, #0
     dfc:	b2010000 	andlt	r0, r1, #0
     e00:	03440101 	movteq	r0, #16641	; 0x4101
     e04:	680d0000 	stmdavs	sp, {}
     e08:	01007264 	tsteq	r0, r4, ror #4
     e0c:	000344b2 	undefined instruction 0x000344b2
     e10:	69620e00 	stmdbvs	r2!, {r9, sl, fp}^
     e14:	4ab40100 	bmi	fed0121c <CONFIG_SYSPAGE_BASE+0xf3d0121c>
     e18:	0f000003 	svceq	0x00000003
     e1c:	000002c6 	andeq	r0, r0, r6, asr #5
     e20:	004fb501 	subeq	fp, pc, r1, lsl #10
     e24:	940f0000 	strls	r0, [pc], #0	; e2c <CONFIG_LOADER_TEXT-0x1fff1d4>
     e28:	01000004 	tsteq	r0, r4
     e2c:	000077b6 	undefined instruction 0x000077b6
     e30:	04100000 	ldreq	r0, [r0]
     e34:	0000024c 	andeq	r0, r0, ip, asr #4
     e38:	01aa0410 	undefined instruction 0x01aa0410
     e3c:	90110000 	andsls	r0, r1, r0
     e40:	01000002 	tsteq	r0, r2
     e44:	00410197 	umaaleq	r0, r1, r7, r1
     e48:	03300000 	teqeq	r0, #0
     e4c:	03e80200 	mvneq	r0, #0
     e50:	01b90200 	undefined instruction 0x01b90200
     e54:	03960000 	orrseq	r0, r6, #0
     e58:	68120000 	ldmdavs	r2, {}
     e5c:	01007264 	tsteq	r0, r4, ror #4
     e60:	00034497 	muleq	r3, r7, r4
     e64:	0001d800 	andeq	sp, r1, r0, lsl #16
     e68:	006d1200 	rsbeq	r1, sp, r0, lsl #4
     e6c:	03969701 	orrseq	r9, r6, #262144	; 0x40000
     e70:	01f60000 	mvnseq	r0, r0
     e74:	63130000 	tstvs	r3, #0
     e78:	9c990100 	ldflss	f0, [r9], {0}
     e7c:	14000003 	strne	r0, [r0], #-3
     e80:	00000002 	andeq	r0, r0, r2
     e84:	00ce0410 	sbceq	r0, lr, r0, lsl r4
     e88:	04100000 	ldreq	r0, [r0]
     e8c:	0000016c 	andeq	r0, r0, ip, ror #2
     e90:	02cb0114 	sbceq	r0, fp, #5
     e94:	39010000 	stmdbcc	r1, {}
     e98:	0003e801 	andeq	lr, r3, r1, lsl #16
     e9c:	00065802 	andeq	r5, r6, r2, lsl #16
     ea0:	00022702 	andeq	r2, r2, r2, lsl #14
     ea4:	00043f00 	andeq	r3, r4, r0, lsl #30
     ea8:	64681300 	strbtvs	r1, [r8], #-768	; 0x300
     eac:	3b010072 	blcc	4107c <CONFIG_LOADER_TEXT-0x1fbef84>
     eb0:	0000039c 	muleq	r0, ip, r3
     eb4:	00000246 	andeq	r0, r0, r6, asr #4
     eb8:	00696215 	rsbeq	r6, r9, r5, lsl r2
     ebc:	034a3c01 	movteq	r3, #44033	; 0xac01
     ec0:	56010000 	strpl	r0, [r1], -r0
     ec4:	01006d15 	tsteq	r0, r5, lsl sp
     ec8:	0003963d 	andeq	r9, r3, sp, lsr r6
     ecc:	0f5a0100 	svceq	0x005a0100
     ed0:	0000026c 	andeq	r0, r0, ip, ror #4
     ed4:	039c3e01 	orrseq	r3, ip, #16
     ed8:	69130000 	ldmdbvs	r3, {}
     edc:	413f0100 	teqmi	pc, r0, lsl #2
     ee0:	64000000 	strvs	r0, [r0]
     ee4:	13000002 	movwne	r0, #2
     ee8:	006e656c 	rsbeq	r6, lr, ip, ror #10
     eec:	00824001 	addeq	r4, r2, r1
     ef0:	02820000 	addeq	r0, r2, #0
     ef4:	0b160000 	bleq	580efc <CONFIG_LOADER_TEXT-0x1a7f104>
     ef8:	9c000003 	stcls	0, cr0, [r0], {3}
     efc:	00020004 	andeq	r0, r2, r4
     f00:	01000000 	tsteq	r0, r0
     f04:	03181777 	tsteq	r8, #31195136	; 0x1dc0000
     f08:	20180000 	andscs	r0, r8, r0
     f0c:	19000000 	stmdbne	r0, {}
     f10:	00000323 	andeq	r0, r0, r3, lsr #6
     f14:	000002c1 	andeq	r0, r0, r1, asr #5
     f18:	00032d19 	andeq	r2, r3, r9, lsl sp
     f1c:	0002ea00 	andeq	lr, r2, r0, lsl #20
     f20:	03381900 	teqeq	r8, #0
     f24:	02fd0000 	rscseq	r0, sp, #0
     f28:	00000000 	andeq	r0, r0, r0
     f2c:	02331a00 	eorseq	r1, r3, #0
     f30:	37060000 	strcc	r0, [r6, -r0]
     f34:	0000044c 	andeq	r0, r0, ip, asr #8
     f38:	4a1b0101 	bmi	6c1344 <CONFIG_LOADER_TEXT-0x193ecbc>
     f3c:	1c000003 	stcne	0, cr0, [r0], {3}
     f40:	000002c1 	andeq	r0, r0, r1, asr #5
     f44:	004f2b01 	subeq	r2, pc, r1, lsl #22
     f48:	05010000 	streq	r0, [r1]
     f4c:	00175803 	andseq	r5, r7, r3, lsl #16
     f50:	02d31c02 	sbcseq	r1, r3, #512	; 0x200
     f54:	2c010000 	stccs	0, cr0, [r1], {0}
     f58:	0000004f 	andeq	r0, r0, pc, asr #32
     f5c:	50030501 	andpl	r0, r3, r1, lsl #10
     f60:	1c020017 	stcne	0, cr0, [r2], {23}
     f64:	000002a3 	andeq	r0, r0, r3, lsr #5
     f68:	00412d01 	subeq	r2, r1, r1, lsl #26
     f6c:	05010000 	streq	r0, [r1]
     f70:	00175403 	andseq	r5, r7, r3, lsl #8
     f74:	08ae0002 	stmiaeq	lr!, {r1}
     f78:	00020000 	andeq	r0, r2, r0
     f7c:	000005c2 	andeq	r0, r0, r2, asr #11
     f80:	009a0104 	addseq	r0, sl, r4, lsl #2
     f84:	20010000 	andcs	r0, r1, r0
     f88:	c5000004 	strgt	r0, [r0, #-4]
     f8c:	58000000 	stmdapl	r0, {}
     f90:	fc020006 	stc2	0, cr0, [r2], {6}
     f94:	ea02000d 	b	80fd0 <CONFIG_LOADER_TEXT-0x1f7f030>
     f98:	02000005 	andeq	r0, r0, #5
     f9c:	003e0601 	eorseq	r0, lr, r1, lsl #12
     fa0:	01020000 	tsteq	r2, r0
     fa4:	00003c08 	andeq	r3, r0, r8, lsl #24
     fa8:	05020200 	streq	r0, [r2, #-512]	; 0x200
     fac:	000000bb 	strheq	r0, [r0], -fp
     fb0:	00046503 	andeq	r6, r4, r3, lsl #10
     fb4:	452c0200 	strmi	r0, [ip, #-512]!	; 0x200
     fb8:	02000000 	andeq	r0, r0, #0
     fbc:	00630702 	rsbeq	r0, r3, r2, lsl #14
     fc0:	b7030000 	strlt	r0, [r3, -r0]
     fc4:	02000001 	andeq	r0, r0, #1
     fc8:	0000572d 	andeq	r5, r0, sp, lsr #14
     fcc:	05040400 	streq	r0, [r4, #-1024]	; 0x400
     fd0:	00746e69 	rsbseq	r6, r4, r9, ror #28
     fd4:	0001b603 	andeq	fp, r1, r3, lsl #12
     fd8:	692e0200 	stmdbvs	lr!, {r9}
     fdc:	02000000 	andeq	r0, r0, #0
     fe0:	00560704 	subseq	r0, r6, r4, lsl #14
     fe4:	14030000 	strne	r0, [r3]
     fe8:	02000000 	andeq	r0, r0, #0
     fec:	00007b30 	andeq	r7, r0, r0, lsr fp
     ff0:	07040200 	streq	r0, [r4, -r0, lsl #4]
     ff4:	00000051 	andeq	r0, r0, r1, asr r0
     ff8:	00013103 	andeq	r3, r1, r3, lsl #2
     ffc:	7b320200 	blvc	c81804 <CONFIG_LOADER_TEXT-0x137e7fc>
    1000:	03000000 	movweq	r0, #0
    1004:	0000011b 	andeq	r0, r0, fp, lsl r1
    1008:	00695903 	rsbeq	r5, r9, r3, lsl #18
    100c:	04020000 	streq	r0, [r2]
    1010:	0000ff05 	andeq	pc, r0, r5, lsl #30
    1014:	02950500 	addseq	r0, r5, #0
    1018:	04300000 	ldrteq	r0, [r0]
    101c:	00012a3c 	andeq	r2, r1, ip, lsr sl
    1020:	04e90600 	strbteq	r0, [r9], #1536	; 0x600
    1024:	3d040000 	stccc	0, cr0, [r4]
    1028:	0000012a 	andeq	r0, r0, sl, lsr #2
    102c:	06002302 	streq	r2, [r0], -r2, lsl #6
    1030:	00000007 	andeq	r0, r0, r7
    1034:	00703e04 	rsbseq	r3, r0, r4, lsl #28
    1038:	23020000 	movwcs	r0, #8192	; 0x2000
    103c:	04940610 	ldreq	r0, [r4], #1552	; 0x610
    1040:	3f040000 	svccc	0x00040000
    1044:	0000008d 	andeq	r0, r0, sp, lsl #1
    1048:	06142302 	ldreq	r2, [r4], -r2, lsl #6
    104c:	00000302 	andeq	r0, r0, r2, lsl #6
    1050:	00824004 	addeq	r4, r2, r4
    1054:	23020000 	movwcs	r0, #8192	; 0x2000
    1058:	001c0618 	andseq	r0, ip, r8, lsl r6
    105c:	41040000 	tstmi	r4, r0
    1060:	00000082 	andeq	r0, r0, r2, lsl #1
    1064:	061c2302 	ldreq	r2, [ip], -r2, lsl #6
    1068:	0000002f 	andeq	r0, r0, pc, lsr #32
    106c:	00824204 	addeq	r4, r2, r4, lsl #4
    1070:	23020000 	movwcs	r0, #8192	; 0x2000
    1074:	00b40620 	adcseq	r0, r4, r0, lsr #12
    1078:	43040000 	movwmi	r0, #16384	; 0x4000
    107c:	0000008d 	andeq	r0, r0, sp, lsl #1
    1080:	06242302 	strteq	r2, [r4], -r2, lsl #6
    1084:	0000004a 	andeq	r0, r0, sl, asr #32
    1088:	008d4404 	addeq	r4, sp, r4, lsl #8
    108c:	23020000 	movwcs	r0, #8192	; 0x2000
    1090:	00940628 	addseq	r0, r4, r8, lsr #12
    1094:	45040000 	strmi	r0, [r4]
    1098:	0000008d 	andeq	r0, r0, sp, lsl #1
    109c:	002c2302 	eoreq	r2, ip, r2, lsl #6
    10a0:	00013d07 	andeq	r3, r1, r7, lsl #26
    10a4:	00013a00 	andeq	r3, r1, r0, lsl #20
    10a8:	013a0800 	teqeq	sl, r0, lsl #16
    10ac:	000f0000 	andeq	r0, pc, r0
    10b0:	02070409 	andeq	r0, r7, #150994944	; 0x9000000
    10b4:	00450801 	subeq	r0, r5, r1, lsl #16
    10b8:	02030000 	andeq	r0, r3, #0
    10bc:	05000002 	streq	r0, [r0, #-2]
    10c0:	00005e2a 	andeq	r5, r0, sl, lsr #28
    10c4:	03df0300 	bicseq	r0, pc, #0
    10c8:	2b050000 	blcs	1410d0 <CONFIG_LOADER_TEXT-0x1ebef30>
    10cc:	0000005e 	andeq	r0, r0, lr, asr r0
    10d0:	00019a03 	andeq	r9, r1, r3, lsl #20
    10d4:	4c2c0500 	cfstr32mi	mvfx0, [ip]
    10d8:	03000000 	movweq	r0, #0
    10dc:	0000016a 	andeq	r0, r0, sl, ror #2
    10e0:	005e2d05 	subseq	r2, lr, r5, lsl #26
    10e4:	55030000 	strpl	r0, [r3]
    10e8:	05000003 	streq	r0, [r0, #-3]
    10ec:	00003a2e 	andeq	r3, r0, lr, lsr #20
    10f0:	02f20500 	rscseq	r0, r2, #0
    10f4:	05340000 	ldreq	r0, [r4]!
    10f8:	00024c6b 	andeq	r4, r2, fp, ror #24
    10fc:	04580600 	ldrbeq	r0, [r8], #-1536	; 0x600
    1100:	6c050000 	stcvs	0, cr0, [r5], {0}
    1104:	0000024c 	andeq	r0, r0, ip, asr #4
    1108:	06002302 	streq	r2, [r0], -r2, lsl #6
    110c:	000003c6 	andeq	r0, r0, r6, asr #7
    1110:	01706d05 	cmneq	r0, r5, lsl #26
    1114:	23020000 	movwcs	r0, #8192	; 0x2000
    1118:	031d0610 	tsteq	sp, #16777216	; 0x1000000
    111c:	6e050000 	cdpvs	0, 0, cr0, cr5, cr0, {0}
    1120:	00000170 	andeq	r0, r0, r0, ror r1
    1124:	06122302 	ldreq	r2, [r2], -r2, lsl #6
    1128:	00000416 	andeq	r0, r0, r6, lsl r4
    112c:	01656f05 	cmneq	r5, r5, lsl #30
    1130:	23020000 	movwcs	r0, #8192	; 0x2000
    1134:	03000614 	movweq	r0, #1556	; 0x614
    1138:	70050000 	andvc	r0, r5, r0
    113c:	00000144 	andeq	r0, r0, r4, asr #2
    1140:	06182302 	ldreq	r2, [r8], -r2, lsl #6
    1144:	000004a3 	andeq	r0, r0, r3, lsr #9
    1148:	014f7105 	cmpeq	pc, r5, lsl #2
    114c:	23020000 	movwcs	r0, #8192	; 0x2000
    1150:	04bc061c 	ldrteq	r0, [ip], #1564	; 0x61c
    1154:	72050000 	andvc	r0, r5, #0
    1158:	0000014f 	andeq	r0, r0, pc, asr #2
    115c:	06202302 	strteq	r2, [r0], -r2, lsl #6
    1160:	00000315 	andeq	r0, r0, r5, lsl r3
    1164:	01657305 	cmneq	r5, r5, lsl #6
    1168:	23020000 	movwcs	r0, #8192	; 0x2000
    116c:	03d60624 	bicseq	r0, r6, #37748736	; 0x2400000
    1170:	74050000 	strvc	r0, [r5]
    1174:	00000170 	andeq	r0, r0, r0, ror r1
    1178:	06282302 	strteq	r2, [r8], -r2, lsl #6
    117c:	00000332 	andeq	r0, r0, r2, lsr r3
    1180:	01707505 	cmneq	r0, r5, lsl #10
    1184:	23020000 	movwcs	r0, #8192	; 0x2000
    1188:	0505062a 	streq	r0, [r5, #-1578]	; 0x62a
    118c:	76050000 	strvc	r0, [r5], -r0
    1190:	00000170 	andeq	r0, r0, r0, ror r1
    1194:	062c2302 	strteq	r2, [ip], -r2, lsl #6
    1198:	00000394 	muleq	r0, r4, r3
    119c:	01707705 	cmneq	r0, r5, lsl #14
    11a0:	23020000 	movwcs	r0, #8192	; 0x2000
    11a4:	0516062e 	ldreq	r0, [r6, #-1582]	; 0x62e
    11a8:	78050000 	stmdavc	r5, {}
    11ac:	00000170 	andeq	r0, r0, r0, ror r1
    11b0:	06302302 	ldrteq	r2, [r0], -r2, lsl #6
    11b4:	000002de 	ldrdeq	r0, [r0], -lr
    11b8:	01707905 	cmneq	r0, r5, lsl #18
    11bc:	23020000 	movwcs	r0, #8192	; 0x2000
    11c0:	2c070032 	stccs	0, cr0, [r7], {50}	; 0x32
    11c4:	5c000000 	stcpl	0, cr0, [r0], {0}
    11c8:	08000002 	stmdaeq	r0, {r1}
    11cc:	0000013a 	andeq	r0, r0, sl, lsr r1
    11d0:	4d03000f 	stcmi	0, cr0, [r3, #-60]	; 0xffffffc4
    11d4:	05000004 	streq	r0, [r0, #-4]
    11d8:	00017b7b 	andeq	r7, r1, fp, ror fp
    11dc:	05280a00 	streq	r0, [r8, #-2560]!	; 0xa00
    11e0:	0002fca8 	andeq	pc, r2, r8, lsr #25
    11e4:	04e60600 	strbteq	r0, [r6], #1536	; 0x600
    11e8:	a9050000 	stmdbge	r5, {}
    11ec:	00000165 	andeq	r0, r0, r5, ror #2
    11f0:	06002302 	streq	r2, [r0], -r2, lsl #6
    11f4:	000003e9 	andeq	r0, r0, r9, ror #7
    11f8:	0165ab05 	cmneq	r5, r5, lsl #22
    11fc:	23020000 	movwcs	r0, #8192	; 0x2000
    1200:	04440604 	strbeq	r0, [r4], #-1540	; 0x604
    1204:	ac050000 	stcge	0, cr0, [r5], {0}
    1208:	00000165 	andeq	r0, r0, r5, ror #2
    120c:	06082302 	streq	r2, [r8], -r2, lsl #6
    1210:	00000375 	andeq	r0, r0, r5, ror r3
    1214:	0144ad05 	cmpeq	r4, r5, lsl #26
    1218:	23020000 	movwcs	r0, #8192	; 0x2000
    121c:	047f060c 	ldrbteq	r0, [pc], #1548	; 1224 <CONFIG_LOADER_TEXT-0x1ffeddc>
    1220:	ae050000 	cdpge	0, 0, cr0, cr5, cr0, {0}
    1224:	0000014f 	andeq	r0, r0, pc, asr #2
    1228:	06102302 	ldreq	r2, [r0], -r2, lsl #6
    122c:	00000491 	muleq	r0, r1, r4
    1230:	0165af05 	cmneq	r5, r5, lsl #30
    1234:	23020000 	movwcs	r0, #8192	; 0x2000
    1238:	04ab0614 	strteq	r0, [fp], #1556	; 0x614
    123c:	b0050000 	andlt	r0, r5, r0
    1240:	00000165 	andeq	r0, r0, r5, ror #2
    1244:	06182302 	ldreq	r2, [r8], -r2, lsl #6
    1248:	0000033e 	andeq	r0, r0, lr, lsr r3
    124c:	0165b105 	cmneq	r5, r5, lsl #2
    1250:	23020000 	movwcs	r0, #8192	; 0x2000
    1254:	0437061c 	ldrteq	r0, [r7], #-1564	; 0x61c
    1258:	b2050000 	andlt	r0, r5, #0
    125c:	00000165 	andeq	r0, r0, r5, ror #2
    1260:	06202302 	strteq	r2, [r0], -r2, lsl #6
    1264:	0000036a 	andeq	r0, r0, sl, ror #6
    1268:	0165b305 	cmneq	r5, r5, lsl #6
    126c:	23020000 	movwcs	r0, #8192	; 0x2000
    1270:	27030024 	strcs	r0, [r3, -r4, lsr #32]
    1274:	05000003 	streq	r0, [r0, #-3]
    1278:	000267b4 	undefined instruction 0x000267b4
    127c:	042d0500 	strteq	r0, [sp], #-1280	; 0x500
    1280:	05100000 	ldreq	r0, [r0]
    1284:	000368f2 	strdeq	r6, [r3], -r2
    1288:	034d0600 	movteq	r0, #54784	; 0xd600
    128c:	f3050000 	vhadd.u8	d0, d5, d0
    1290:	00000165 	andeq	r0, r0, r5, ror #2
    1294:	06002302 	streq	r2, [r0], -r2, lsl #6
    1298:	000004f3 	strdeq	r0, [r0], -r3
    129c:	0144f405 	cmppeq	r4, r5, lsl #8
    12a0:	23020000 	movwcs	r0, #8192	; 0x2000
    12a4:	04c40604 	strbeq	r0, [r4], #1540	; 0x604
    12a8:	f5050000 	undefined instruction 0xf5050000
    12ac:	00000165 	andeq	r0, r0, r5, ror #2
    12b0:	06082302 	streq	r2, [r8], -r2, lsl #6
    12b4:	00000477 	andeq	r0, r0, r7, ror r4
    12b8:	002cf605 	eoreq	pc, ip, r5, lsl #12
    12bc:	23020000 	movwcs	r0, #8192	; 0x2000
    12c0:	046e060c 	strbteq	r0, [lr], #-1548	; 0x60c
    12c4:	f7050000 	undefined instruction 0xf7050000
    12c8:	0000002c 	andeq	r0, r0, ip, lsr #32
    12cc:	060d2302 	streq	r2, [sp], -r2, lsl #6
    12d0:	000004b3 	undefined instruction 0x000004b3
    12d4:	0170f805 	cmnpeq	r0, r5, lsl #16
    12d8:	23020000 	movwcs	r0, #8192	; 0x2000
    12dc:	5503000e 	strpl	r0, [r3, #-14]
    12e0:	05000005 	streq	r0, [r0, #-5]
    12e4:	000307f9 	strdeq	r0, [r3], -r9
    12e8:	05080b00 	streq	r0, [r8, #-2816]	; 0xb00
    12ec:	039b0117 	orrseq	r0, fp, #-1073741819	; 0xc0000005
    12f0:	a60c0000 	strge	r0, [ip], -r0
    12f4:	05000001 	streq	r0, [r0, #-1]
    12f8:	01440118 	cmpeq	r4, r8, lsl r1
    12fc:	23020000 	movwcs	r0, #8192	; 0x2000
    1300:	01af0c00 	undefined instruction 0x01af0c00
    1304:	19050000 	stmdbne	r5, {}
    1308:	00016501 	andeq	r6, r1, r1, lsl #10
    130c:	04230200 	strteq	r0, [r3], #-512	; 0x200
    1310:	01cd0d00 	biceq	r0, sp, r0, lsl #26
    1314:	1a050000 	bne	14131c <CONFIG_LOADER_TEXT-0x1ebece4>
    1318:	00037301 	andeq	r7, r3, r1, lsl #6
    131c:	050c0b00 	streq	r0, [ip, #-2816]	; 0xb00
    1320:	03de011e 	bicseq	r0, lr, #-2147483641	; 0x80000007
    1324:	a60c0000 	strge	r0, [ip], -r0
    1328:	05000001 	streq	r0, [r0, #-1]
    132c:	0144011f 	cmpeq	r4, pc, lsl r1
    1330:	23020000 	movwcs	r0, #8192	; 0x2000
    1334:	01af0c00 	undefined instruction 0x01af0c00
    1338:	20050000 	andcs	r0, r5, r0
    133c:	00016501 	andeq	r6, r1, r1, lsl #10
    1340:	04230200 	strteq	r0, [r3], #-512	; 0x200
    1344:	0001d70c 	andeq	sp, r1, ip, lsl #14
    1348:	01210500 	teqeq	r1, r0, lsl #10
    134c:	0000015a 	andeq	r0, r0, sl, asr r1
    1350:	00082302 	andeq	r2, r8, r2, lsl #6
    1354:	0001890d 	andeq	r8, r1, sp, lsl #18
    1358:	01220500 	teqeq	r2, r0, lsl #10
    135c:	000003a7 	andeq	r0, r0, r7, lsr #7
    1360:	2a05200b 	bcs	149394 <CONFIG_LOADER_TEXT-0x1eb6c6c>
    1364:	00046c01 	andeq	r6, r4, r1, lsl #24
    1368:	03850c00 	orreq	r0, r5, #0
    136c:	2b050000 	blcs	141374 <CONFIG_LOADER_TEXT-0x1ebec8c>
    1370:	00016501 	andeq	r6, r1, r1, lsl #10
    1374:	00230200 	eoreq	r0, r3, r0, lsl #4
    1378:	0004cc0c 	andeq	ip, r4, ip, lsl #24
    137c:	012c0500 	teqeq	ip, r0, lsl #10
    1380:	0000014f 	andeq	r0, r0, pc, asr #2
    1384:	0c042302 	stceq	3, cr2, [r4], {2}
    1388:	0000037d 	andeq	r0, r0, sp, ror r3
    138c:	44012d05 	strmi	r2, [r1], #-3333	; 0xd05
    1390:	02000001 	andeq	r0, r0, #1
    1394:	0d0c0823 	stceq	8, cr0, [ip, #-140]	; 0xffffff74
    1398:	05000003 	streq	r0, [r0, #-3]
    139c:	0144012e 	cmpeq	r4, lr, lsr #2
    13a0:	23020000 	movwcs	r0, #8192	; 0x2000
    13a4:	04fc0c0c 	ldrbteq	r0, [ip], #3084	; 0xc0c
    13a8:	2f050000 	svccs	0x00050000
    13ac:	00016501 	andeq	r6, r1, r1, lsl #10
    13b0:	10230200 	eorne	r0, r3, r0, lsl #4
    13b4:	00038c0c 	andeq	r8, r3, ip, lsl #24
    13b8:	01300500 	teqeq	r0, r0, lsl #10
    13bc:	00000165 	andeq	r0, r0, r5, ror #2
    13c0:	0c142302 	ldceq	3, cr2, [r4], {2}
    13c4:	00000489 	andeq	r0, r0, r9, lsl #9
    13c8:	65013105 	strvs	r3, [r1, #-261]	; 0x105
    13cc:	02000001 	andeq	r0, r0, #1
    13d0:	430c1823 	movwmi	r1, #51235	; 0xc823
    13d4:	05000005 	streq	r0, [r0, #-5]
    13d8:	01650132 	cmneq	r5, r2, lsr r1
    13dc:	23020000 	movwcs	r0, #8192	; 0x2000
    13e0:	f10d001c 	undefined instruction 0xf10d001c
    13e4:	05000003 	streq	r0, [r0, #-3]
    13e8:	03ea0133 	mvneq	r0, #-1073741812	; 0xc000000c
    13ec:	1e0e0000 	cdpne	0, 0, cr0, cr14, cr0, {0}
    13f0:	01000005 	tsteq	r0, r5
    13f4:	005701b2 	ldrheq	r0, [r7], #-18	; 0xffffffee
    13f8:	e0010000 	and	r0, r1, r0
    13fc:	0f000004 	svceq	0x00000004
    1400:	00000360 	andeq	r0, r0, r0, ror #6
    1404:	04e0b201 	strbteq	fp, [r0], #513	; 0x201
    1408:	c80f0000 	stmdagt	pc, {}
    140c:	01000001 	tsteq	r0, r1
    1410:	0004e6b2 	undefined instruction 0x0004e6b2
    1414:	017d0f00 	cmneq	sp, r0, lsl #30
    1418:	b3010000 	movwlt	r0, #4096	; 0x1000
    141c:	000004ec 	andeq	r0, r0, ip, ror #9
    1420:	00050d0f 	andeq	r0, r5, pc, lsl #26
    1424:	57b30100 	ldrpl	r0, [r3, r0, lsl #2]!
    1428:	0f000000 	svceq	0x00000000
    142c:	00000346 	andeq	r0, r0, r6, asr #6
    1430:	04ecb301 	strbteq	fp, [ip], #769	; 0x301
    1434:	73100000 	tstvc	r0, #0
    1438:	01006d79 	tsteq	r0, r9, ror sp
    143c:	0004e0b5 	strheq	lr, [r4], -r5
    1440:	01751100 	cmneq	r5, r0, lsl #2
    1444:	b6010000 	strlt	r0, [r1], -r0
    1448:	00000144 	andeq	r0, r0, r4, asr #2
    144c:	01006910 	tsteq	r0, r0, lsl r9
    1450:	000057b7 	undefined instruction 0x000057b7
    1454:	04120000 	ldreq	r0, [r2]
    1458:	00000368 	andeq	r0, r0, r8, ror #6
    145c:	03de0412 	bicseq	r0, lr, #301989888	; 0x12000000
    1460:	04120000 	ldreq	r0, [r2]
    1464:	0000013d 	andeq	r0, r0, sp, lsr r1
    1468:	0003fc0e 	andeq	pc, r3, lr, lsl #24
    146c:	016e0100 	cmneq	lr, r0, lsl #2
    1470:	00000057 	andeq	r0, r0, r7, asr r0
    1474:	00054201 	andeq	r4, r5, r1, lsl #4
    1478:	6d691300 	stclvs	3, cr1, [r9]
    147c:	6e010067 	cdpvs	0, 0, cr0, cr1, cr7, {3}
    1480:	000004ec 	andeq	r0, r0, ip, ror #9
    1484:	01006d13 	tsteq	r0, r3, lsl sp
    1488:	0005426e 	andeq	r4, r5, lr, ror #4
    148c:	04601100 	strbteq	r1, [r0], #-256	; 0x100
    1490:	70010000 	andvc	r0, r1, r0
    1494:	00000548 	andeq	r0, r0, r8, asr #10
    1498:	0004ee11 	andeq	lr, r4, r1, lsl lr
    149c:	4e710100 	rpwmis	f0, f1, f0
    14a0:	11000005 	tstne	r0, r5
    14a4:	00000499 	muleq	r0, r9, r4
    14a8:	00707201 	rsbseq	r7, r0, r1, lsl #4
    14ac:	69100000 	ldmdbvs	r0, {}
    14b0:	57730100 	ldrbpl	r0, [r3, -r0, lsl #2]!
    14b4:	00000000 	andeq	r0, r0, r0
    14b8:	009f0412 	addseq	r0, pc, r2, lsl r4
    14bc:	04120000 	ldreq	r0, [r2]
    14c0:	0000025c 	andeq	r0, r0, ip, asr r2
    14c4:	046c0412 	strbteq	r0, [ip], #-1042	; 0x412
    14c8:	d5140000 	ldrle	r0, [r4]
    14cc:	01000004 	tsteq	r0, r4
    14d0:	57010121 	strpl	r0, [r1, -r1, lsr #2]
    14d4:	01000000 	tsteq	r0, r0
    14d8:	000005b7 	undefined instruction 0x000005b7
    14dc:	676d6915 	undefined instruction 0x676d6915
    14e0:	01210100 	teqeq	r1, r0, lsl #2
    14e4:	000004ec 	andeq	r0, r0, ip, ror #9
    14e8:	01006d15 	tsteq	r0, r5, lsl sp
    14ec:	05420121 	strbeq	r0, [r2, #-289]	; 0x121
    14f0:	60160000 	andsvs	r0, r6, r0
    14f4:	01000004 	tsteq	r0, r4
    14f8:	05480123 	strbeq	r0, [r8, #-291]	; 0x123
    14fc:	08160000 	ldmdaeq	r6, {}
    1500:	01000003 	tsteq	r0, r3
    1504:	05b70124 	ldreq	r0, [r7, #292]!	; 0x124
    1508:	4b160000 	blmi	581510 <CONFIG_LOADER_TEXT-0x1a7eaf0>
    150c:	01000005 	tsteq	r0, r5
    1510:	00700125 	rsbseq	r0, r0, r5, lsr #2
    1514:	cd160000 	ldcgt	0, cr0, [r6]
    1518:	01000003 	tsteq	r0, r3
    151c:	00700125 	rsbseq	r0, r0, r5, lsr #2
    1520:	69170000 	ldmdbvs	r7, {}
    1524:	01260100 	teqeq	r6, r0, lsl #2
    1528:	00000057 	andeq	r0, r0, r7, asr r0
    152c:	fc041200 	stc2	2, cr1, [r4], {0}
    1530:	0e000002 	cdpeq	0, 0, cr0, cr0, cr2, {0}
    1534:	000003b5 	undefined instruction 0x000003b5
    1538:	5701f801 	strpl	pc, [r1, -r1, lsl #16]
    153c:	01000000 	tsteq	r0, r0
    1540:	0000061c 	andeq	r0, r0, ip, lsl r6
    1544:	676d6913 	undefined instruction 0x676d6913
    1548:	ecf80100 	ldfe	f0, [r8]
    154c:	0f000004 	svceq	0x00000004
    1550:	00000308 	andeq	r0, r0, r8, lsl #6
    1554:	05b7f801 	ldreq	pc, [r7, #2049]!	; 0x801
    1558:	f9110000 	undefined instruction 0xf9110000
    155c:	01000002 	tsteq	r0, r2
    1560:	0004e0fa 	strdeq	lr, [r4], -sl
    1564:	017d1100 	cmneq	sp, r0, lsl #2
    1568:	fb010000 	blx	41572 <CONFIG_LOADER_TEXT-0x1fbea8e>
    156c:	000004ec 	andeq	r0, r0, ip, ror #9
    1570:	00050d11 	andeq	r0, r5, r1, lsl sp
    1574:	57fc0100 	ldrbpl	r0, [ip, r0, lsl #2]!
    1578:	11000000 	tstne	r0, r0
    157c:	00000534 	andeq	r0, r0, r4, lsr r5
    1580:	0057fc01 	subseq	pc, r7, r1, lsl #24
    1584:	46110000 	ldrmi	r0, [r1], -r0
    1588:	01000003 	tsteq	r0, r3
    158c:	0004ecfd 	strdeq	lr, [r4], -sp
    1590:	a00e0000 	andge	r0, lr, r0
    1594:	01000003 	tsteq	r0, r3
    1598:	005701ce 	subseq	r0, r7, lr, asr #3
    159c:	84010000 	strhi	r0, [r1]
    15a0:	0f000006 	svceq	0x00000006
    15a4:	00000360 	andeq	r0, r0, r0, ror #6
    15a8:	04e0ce01 	strbteq	ip, [r0], #3585	; 0xe01
    15ac:	72130000 	andsvc	r0, r3, #0
    15b0:	01006c65 	tsteq	r0, r5, ror #24
    15b4:	000684ce 	andeq	r8, r6, lr, asr #9
    15b8:	017d0f00 	cmneq	sp, r0, lsl #30
    15bc:	cf010000 	svcgt	0x00010000
    15c0:	000004ec 	andeq	r0, r0, ip, ror #9
    15c4:	00050d0f 	andeq	r0, r5, pc, lsl #26
    15c8:	57cf0100 	strbpl	r0, [pc, r0, lsl #2]
    15cc:	0f000000 	svceq	0x00000000
    15d0:	00000346 	andeq	r0, r0, r6, asr #6
    15d4:	04eccf01 	strbteq	ip, [ip], #3841	; 0xf01
    15d8:	73100000 	tstvc	r0, #0
    15dc:	01006d79 	tsteq	r0, r9, ror sp
    15e0:	0004e0d1 	ldrdeq	lr, [r4], -r1
    15e4:	01751100 	cmneq	r5, r0, lsl #2
    15e8:	d2010000 	andle	r0, r1, #0
    15ec:	00000144 	andeq	r0, r0, r4, asr #2
    15f0:	01006910 	tsteq	r0, r0, lsl r9
    15f4:	000057d3 	ldrdeq	r5, [r0], -r3
    15f8:	04120000 	ldreq	r0, [r2]
    15fc:	0000039b 	muleq	r0, fp, r3
    1600:	053a0118 	ldreq	r0, [sl, #-280]!	; 0x118
    1604:	35010000 	strcc	r0, [r1]
    1608:	00005701 	andeq	r5, r0, r1, lsl #14
    160c:	00065800 	andeq	r5, r6, r0, lsl #16
    1610:	000dfc02 	andeq	pc, sp, r2, lsl #24
    1614:	00031b02 	andeq	r1, r3, r2, lsl #22
    1618:	00085800 	andeq	r5, r8, r0, lsl #16
    161c:	6d691900 	stclvs	9, cr1, [r9]
    1620:	35010067 	strcc	r0, [r1, #-103]	; 0x67
    1624:	000004ec 	andeq	r0, r0, ip, ror #9
    1628:	00000346 	andeq	r0, r0, r6, asr #6
    162c:	01006d19 	tsteq	r0, r9, lsl sp
    1630:	00054235 	andeq	r4, r5, r5, lsr r2
    1634:	00037a00 	andeq	r7, r3, r0, lsl #20
    1638:	04601100 	strbteq	r1, [r0], #-256	; 0x100
    163c:	37010000 	strcc	r0, [r1, -r0]
    1640:	00000548 	andeq	r0, r0, r8, asr #10
    1644:	0004ee11 	andeq	lr, r4, r1, lsl lr
    1648:	4e380100 	rsfmie	f0, f0, f0
    164c:	1a000005 	bne	1668 <CONFIG_LOADER_TEXT-0x1ffe998>
    1650:	000004f2 	strdeq	r0, [r0], -r2
    1654:	02000700 	andeq	r0, r0, #0
    1658:	02000898 	andeq	r0, r0, #9961472	; 0x980000
    165c:	07215e01 	streq	r5, [r1, -r1, lsl #28]!
    1660:	0e1b0000 	cdpeq	0, 1, cr0, cr11, cr0, {0}
    1664:	1b000005 	blne	1680 <CONFIG_LOADER_TEXT-0x1ffe980>
    1668:	00000503 	andeq	r0, r0, r3, lsl #10
    166c:	0007001c 	andeq	r0, r7, ip, lsl r0
    1670:	00089802 	andeq	r9, r8, r2, lsl #16
    1674:	05171d02 	ldreq	r1, [r7, #-3330]	; 0xd02
    1678:	221e0000 	andscs	r0, lr, #0
    167c:	b9000005 	stmdblt	r0, {r0, r2}
    1680:	1e000003 	cdpne	0, 0, cr0, cr0, cr3, {0}
    1684:	0000052d 	andeq	r0, r0, sp, lsr #10
    1688:	000003d7 	ldrdeq	r0, [r0], -r7
    168c:	0005381e 	andeq	r3, r5, lr, lsl r8
    1690:	0003ea00 	andeq	lr, r3, r0, lsl #20
    1694:	1f000000 	svcne	0x00000000
    1698:	00000554 	andeq	r0, r0, r4, asr r5
    169c:	02000898 	andeq	r0, r0, #9961472	; 0x980000
    16a0:	02000d3c 	andeq	r0, r0, #3840	; 0xf00
    16a4:	721b6201 	andsvc	r6, fp, #268435456	; 0x10000000
    16a8:	1b000005 	blne	16c4 <CONFIG_LOADER_TEXT-0x1ffe93c>
    16ac:	00000566 	andeq	r0, r0, r6, ror #10
    16b0:	0008981c 	andeq	r9, r8, ip, lsl r8
    16b4:	000d3c02 	andeq	r3, sp, r2, lsl #24
    16b8:	057c1d02 	ldrbeq	r1, [ip, #-3330]!	; 0xd02
    16bc:	881e0000 	ldmdahi	lr, {}
    16c0:	08000005 	stmdaeq	r0, {r0, r2}
    16c4:	1e000004 	cdpne	0, 0, cr0, cr0, cr4, {0}
    16c8:	00000594 	muleq	r0, r4, r5
    16cc:	00000431 	andeq	r0, r0, r1, lsr r4
    16d0:	0005a020 	andeq	sl, r5, r0, lsr #32
    16d4:	007d0200 	rsbseq	r0, sp, r0, lsl #4
    16d8:	0005ac1e 	andeq	sl, r5, lr, lsl ip
    16dc:	00044f00 	andeq	r4, r4, r0, lsl #30
    16e0:	05bd2100 	ldreq	r2, [sp, #256]!	; 0x100
    16e4:	0aec0000 	beq	ffb016ec <CONFIG_SYSPAGE_BASE+0xf4b016ec>
    16e8:	00400200 	subeq	r0, r0, r0, lsl #4
    16ec:	7b010000 	blvc	416f4 <CONFIG_LOADER_TEXT-0x1fbe90c>
    16f0:	05d91b01 	ldrbeq	r1, [r9, #2817]	; 0xb01
    16f4:	ce1b0000 	cdpgt	0, 1, cr0, cr11, cr0, {0}
    16f8:	22000005 	andcs	r0, r0, #5
    16fc:	00000058 	andeq	r0, r0, r8, asr r0
    1700:	0005e41e 	andeq	lr, r5, lr, lsl r4
    1704:	00047800 	andeq	r7, r4, r0, lsl #16
    1708:	05ef2000 	strbeq	r2, [pc, #0]!	; 1710 <CONFIG_LOADER_TEXT-0x1ffe8f0>
    170c:	7d020000 	stcvc	0, cr0, [r2]
    1710:	05fa2008 	ldrbeq	r2, [sl, #8]!
    1714:	7d020000 	stcvc	0, cr0, [r2]
    1718:	06051d0c 	streq	r1, [r5], -ip, lsl #26
    171c:	101e0000 	andsne	r0, lr, r0
    1720:	b7000006 	strlt	r0, [r0, -r6]
    1724:	23000004 	movwcs	r0, #4
    1728:	0000061c 	andeq	r0, r0, ip, lsl r6
    172c:	02000b9c 	andeq	r0, r0, #159744	; 0x27000
    1730:	02000c58 	andeq	r0, r0, #22528	; 0x5800
    1734:	04010e01 	streq	r0, [r1], #-3585	; 0xe01
    1738:	1b000008 	blne	1760 <CONFIG_LOADER_TEXT-0x1ffe8a0>
    173c:	00000659 	andeq	r0, r0, r9, asr r6
    1740:	00064e1b 	andeq	r4, r6, fp, lsl lr
    1744:	06431b00 	strbeq	r1, [r3], -r0, lsl #22
    1748:	38240000 	stmdacc	r4!, {}
    174c:	d5000006 	strle	r0, [r0, #-6]
    1750:	1b000004 	blne	1768 <CONFIG_LOADER_TEXT-0x1ffe898>
    1754:	0000062d 	andeq	r0, r0, sp, lsr #12
    1758:	000b9c1c 	andeq	r9, fp, ip, lsl ip
    175c:	000c5802 	andeq	r5, ip, r2, lsl #16
    1760:	06641e02 	strbteq	r1, [r4], -r2, lsl #28
    1764:	05140000 	ldreq	r0, [r4]
    1768:	6f1d0000 	svcvs	0x001d0000
    176c:	1e000006 	cdpne	0, 0, cr0, cr0, cr6, {0}
    1770:	0000067a 	andeq	r0, r0, sl, ror r6
    1774:	00000553 	andeq	r0, r0, r3, asr r5
    1778:	78250000 	stmdavc	r5!, {}
    177c:	68000004 	stmdavs	r0, {r2}
    1780:	0802000c 	stmdaeq	r2, {r2, r3}
    1784:	0102000d 	tsteq	r2, sp
    1788:	94240114 	strtls	r0, [r4], #-276	; 0x114
    178c:	87000004 	strhi	r0, [r0, -r4]
    1790:	1b000005 	blne	17ac <CONFIG_LOADER_TEXT-0x1ffe854>
    1794:	000004b5 	undefined instruction 0x000004b5
    1798:	0004aa1b 	andeq	sl, r4, fp, lsl sl
    179c:	049f1b00 	ldreq	r1, [pc], #2816	; 17a4 <CONFIG_LOADER_TEXT-0x1ffe85c>
    17a0:	891b0000 	ldmdbhi	fp, {}
    17a4:	1c000004 	stcne	0, cr0, [r0], {4}
    17a8:	02000c68 	andeq	r0, r0, #26624	; 0x6800
    17ac:	02000d08 	andeq	r0, r0, #512	; 0x200
    17b0:	0004c01e 	andeq	ip, r4, lr, lsl r0
    17b4:	0005bb00 	andeq	fp, r5, r0, lsl #22
    17b8:	04cb1d00 	strbeq	r1, [fp], #3328	; 0xd00
    17bc:	d61e0000 	ldrle	r0, [lr], -r0
    17c0:	ef000004 	svc	0x00000004
    17c4:	00000005 	andeq	r0, r0, r5
    17c8:	00000000 	andeq	r0, r0, r0
    17cc:	ec070000 	stc	0, cr0, [r7], {0}
    17d0:	68000004 	stmdavs	r0, {r2}
    17d4:	08000008 	stmdaeq	r0, {r3}
    17d8:	0000013a 	andeq	r0, r0, sl, lsr r1
    17dc:	0c26001f 	stceq	0, cr0, [r6], #-124	; 0xffffff84
    17e0:	01000004 	tsteq	r0, r4
    17e4:	0008582d 	andeq	r5, r8, sp, lsr #16
    17e8:	d0030500 	andle	r0, r3, r0, lsl #10
    17ec:	26020016 	undefined instruction 0x26020016
    17f0:	000002e9 	andeq	r0, r0, r9, ror #5
    17f4:	00572e01 	subseq	r2, r7, r1, lsl #28
    17f8:	03050000 	movweq	r0, #20480	; 0x5000
    17fc:	020016cc 	andeq	r1, r0, #213909504	; 0xcc00000
    1800:	0002c127 	andeq	ip, r2, r7, lsr #2
    1804:	70230600 	eorvc	r0, r3, r0, lsl #12
    1808:	01000000 	tsteq	r0, r0
    180c:	02d32701 	sbcseq	r2, r3, #262144	; 0x40000
    1810:	24060000 	strcs	r0, [r6]
    1814:	00000070 	andeq	r0, r0, r0, ror r0
    1818:	a3270101 	teqge	r7, #1073741824	; 0x40000000
    181c:	06000002 	streq	r0, [r0], -r2
    1820:	00005725 	andeq	r5, r0, r5, lsr #14
    1824:	00010100 	andeq	r0, r1, r0, lsl #2
    1828:	00000077 	andeq	r0, r0, r7, ror r0
    182c:	07c20002 	strbeq	r0, [r2, r2]
    1830:	01040000 	tsteq	r4, r0
    1834:	0000009a 	muleq	r0, sl, r0
    1838:	00055f01 	andeq	r5, r5, r1, lsl #30
    183c:	0000c500 	andeq	ip, r0, r0, lsl #10
    1840:	000dfc00 	andeq	pc, sp, r0, lsl #24
    1844:	000e0002 	andeq	r0, lr, r2
    1848:	00080e02 	andeq	r0, r8, r2, lsl #28
    184c:	06010200 	streq	r0, [r1], -r0, lsl #4
    1850:	0000003e 	andeq	r0, r0, lr, lsr r0
    1854:	3c080102 	stfccs	f0, [r8], {2}
    1858:	02000000 	andeq	r0, r0, #0
    185c:	00bb0502 	adcseq	r0, fp, r2, lsl #10
    1860:	02020000 	andeq	r0, r2, #0
    1864:	00006307 	andeq	r6, r0, r7, lsl #6
    1868:	05040300 	streq	r0, [r4, #-768]	; 0x300
    186c:	00746e69 	rsbseq	r6, r4, r9, ror #28
    1870:	56070402 	strpl	r0, [r7], -r2, lsl #8
    1874:	02000000 	andeq	r0, r0, #0
    1878:	00510704 	subseq	r0, r1, r4, lsl #14
    187c:	04020000 	streq	r0, [r2]
    1880:	0000ff05 	andeq	pc, r0, r5, lsl #30
    1884:	07040400 	streq	r0, [r4, -r0, lsl #8]
    1888:	45080102 	strmi	r0, [r8, #-258]	; 0x102
    188c:	05000000 	streq	r0, [r0]
    1890:	00056f01 	andeq	r6, r5, r1, lsl #30
    1894:	01250100 	teqeq	r5, r0, lsl #2
    1898:	02000dfc 	andeq	r0, r0, #16128	; 0x3f00
    189c:	02000e00 	andeq	r0, r0, #0
    18a0:	25005d01 	strcs	r5, [r0, #-3329]	; 0xd01
    18a4:	02000002 	andeq	r0, r0, #2
    18a8:	00080a00 	andeq	r0, r8, r0, lsl #20
    18ac:	9a010400 	bls	428b4 <CONFIG_LOADER_TEXT-0x1fbd74c>
    18b0:	01000000 	tsteq	r0, r0
    18b4:	00000587 	andeq	r0, r0, r7, lsl #11
    18b8:	000000c5 	andeq	r0, r0, r5, asr #1
    18bc:	02000e00 	andeq	r0, r0, #0
    18c0:	02000f38 	andeq	r0, r0, #224	; 0xe0
    18c4:	0000084e 	andeq	r0, r0, lr, asr #16
    18c8:	3e060102 	adfccs	f0, f6, f2
    18cc:	02000000 	andeq	r0, r0, #0
    18d0:	003c0801 	eorseq	r0, ip, r1, lsl #16
    18d4:	02020000 	andeq	r0, r2, #0
    18d8:	0000bb05 	andeq	fp, r0, r5, lsl #22
    18dc:	07020200 	streq	r0, [r2, -r0, lsl #4]
    18e0:	00000063 	andeq	r0, r0, r3, rrx
    18e4:	69050403 	stmdbvs	r5, {r0, r1, sl}
    18e8:	0200746e 	andeq	r7, r0, #1845493760	; 0x6e000000
    18ec:	00560704 	subseq	r0, r6, r4, lsl #14
    18f0:	04020000 	streq	r0, [r2]
    18f4:	00005107 	andeq	r5, r0, r7, lsl #2
    18f8:	011b0400 	tsteq	fp, r0, lsl #8
    18fc:	59020000 	stmdbpl	r2, {}
    1900:	00000048 	andeq	r0, r0, r8, asr #32
    1904:	ff050402 	undefined instruction 0xff050402
    1908:	05000000 	streq	r0, [r0]
    190c:	01020704 	tsteq	r2, r4, lsl #14
    1910:	00004508 	andeq	r4, r0, r8, lsl #10
    1914:	82010600 	andhi	r0, r1, #0
    1918:	01000005 	tsteq	r0, r5
    191c:	00610129 	rsbeq	r0, r1, r9, lsr #2
    1920:	0e000000 	cdpeq	0, 0, cr0, cr0, cr0, {0}
    1924:	0e4c0200 	cdpeq	2, 4, cr0, cr12, cr0, {0}
    1928:	06180200 	ldreq	r0, [r8], -r0, lsl #4
    192c:	00ac0000 	adceq	r0, ip, r0
    1930:	73070000 	movwvc	r0, #28672	; 0x7000
    1934:	01007274 	tsteq	r0, r4, ror r2
    1938:	0000ac29 	andeq	sl, r0, r9, lsr #24
    193c:	00063700 	andeq	r3, r6, r0, lsl #14
    1940:	61760800 	cmnvs	r6, r0, lsl #16
    1944:	2b01006c 	blcs	41afc <CONFIG_LOADER_TEXT-0x1fbe504>
    1948:	00000061 	andeq	r0, r0, r1, rrx
    194c:	09005001 	stmdbeq	r0, {r0, ip, lr}
    1950:	0000b204 	andeq	fp, r0, r4, lsl #4
    1954:	006b0a00 	rsbeq	r0, fp, r0, lsl #20
    1958:	010b0000 	tsteq	fp, r0
    195c:	000005ac 	andeq	r0, r0, ip, lsr #11
    1960:	56013c01 	strpl	r3, [r1], -r1, lsl #24
    1964:	4c000000 	stcmi	0, cr0, [r0], {0}
    1968:	ac02000e 	stcge	0, cr0, [r2], {14}
    196c:	0102000e 	tsteq	r2, lr
    1970:	0001255d 	andeq	r2, r1, sp, asr r5
    1974:	057d0c00 	ldrbeq	r0, [sp, #-3072]!	; 0xc00
    1978:	3c010000 	stccc	0, cr0, [r1], {0}
    197c:	00000125 	andeq	r0, r0, r5, lsr #2
    1980:	00000655 	andeq	r0, r0, r5, asr r6
    1984:	63727307 	cmnvs	r2, #469762048	; 0x1c000000
    1988:	ac3c0100 	ldfges	f0, [ip]
    198c:	68000000 	stmdavs	r0, {}
    1990:	0c000006 	stceq	0, cr0, [r0], {6}
    1994:	000005a6 	andeq	r0, r0, r6, lsr #11
    1998:	00563c01 	subseq	r3, r6, r1, lsl #24
    199c:	067b0000 	ldrbteq	r0, [fp], -r0
    19a0:	640d0000 	strvs	r0, [sp]
    19a4:	253e0100 	ldrcs	r0, [lr, #-256]!	; 0x100
    19a8:	99000001 	stmdbls	r0, {r0}
    19ac:	08000006 	stmdaeq	r0, {r1, r2}
    19b0:	3f010073 	svccc	0x00010073
    19b4:	000000ac 	andeq	r0, r0, ip, lsr #1
    19b8:	6e0d5301 	cdpvs	3, 0, cr5, cr13, cr1, {0}
    19bc:	56400100 	strbpl	r0, [r0], -r0, lsl #2
    19c0:	ac000000 	stcge	0, cr0, [r0], {0}
    19c4:	00000006 	andeq	r0, r0, r6
    19c8:	006b0409 	rsbeq	r0, fp, r9, lsl #8
    19cc:	01060000 	tsteq	r6, r0
    19d0:	0000059e 	muleq	r0, lr, r5
    19d4:	41015601 	tstmi	r1, r1, lsl #12
    19d8:	ac000000 	stcge	0, cr0, [r0], {0}
    19dc:	f402000e 	vst4.8	{d0-d3}, [r2], lr
    19e0:	ca02000e 	bgt	81a20 <CONFIG_LOADER_TEXT-0x1f7e5e0>
    19e4:	81000006 	tsthi	r0, r6
    19e8:	07000001 	streq	r0, [r0, -r1]
    19ec:	00637273 	rsbeq	r7, r3, r3, ror r2
    19f0:	00ac5601 	adceq	r5, ip, r1, lsl #12
    19f4:	06e90000 	strbteq	r0, [r9], r0
    19f8:	740e0000 	strvc	r0, [lr]
    19fc:	01007467 	tsteq	r0, r7, ror #8
    1a00:	0000ac56 	andeq	sl, r0, r6, asr ip
    1a04:	0f510100 	svceq	0x00510100
    1a08:	000005a6 	andeq	r0, r0, r6, lsr #11
    1a0c:	00565601 	subseq	r5, r6, r1, lsl #12
    1a10:	52010000 	andpl	r0, r1, #0
    1a14:	7365720d 	cmnvc	r5, #-805306368	; 0xd0000000
    1a18:	25580100 	ldrbcs	r0, [r8, #-256]	; 0x100
    1a1c:	fc000000 	stc2	0, cr0, [r0], {0}
    1a20:	00000006 	andeq	r0, r0, r6
    1a24:	0597010b 	ldreq	r0, [r7, #267]	; 0x10b
    1a28:	63010000 	movwvs	r0, #4096	; 0x1000
    1a2c:	0001d801 	andeq	sp, r1, r1, lsl #16
    1a30:	000ef400 	andeq	pc, lr, r0, lsl #8
    1a34:	000f1802 	andeq	r1, pc, r2, lsl #16
    1a38:	d85d0102 	ldmdale	sp, {r1, r8}^
    1a3c:	0f000001 	svceq	0x00000001
    1a40:	0000057d 	andeq	r0, r0, sp, ror r5
    1a44:	01d86301 	bicseq	r6, r8, r1, lsl #6
    1a48:	50010000 	andpl	r0, r1, r0
    1a4c:	6372730e 	cmnvs	r2, #939524096	; 0x38000000
    1a50:	da630100 	ble	18c1e58 <CONFIG_LOADER_TEXT-0x73e1a8>
    1a54:	01000001 	tsteq	r0, r1
    1a58:	05a60f51 	streq	r0, [r6, #3921]!	; 0xf51
    1a5c:	63010000 	movwvs	r0, #4096	; 0x1000
    1a60:	00000056 	andeq	r0, r0, r6, asr r0
    1a64:	74105201 	ldrvc	r5, [r0], #-513	; 0x201
    1a68:	0100706d 	tsteq	r0, sp, rrx
    1a6c:	00012565 	andeq	r2, r1, r5, ror #10
    1a70:	00731000 	rsbseq	r1, r3, r0
    1a74:	01256501 	teqeq	r5, r1, lsl #10
    1a78:	11000000 	tstne	r0, r0
    1a7c:	e0040904 	and	r0, r4, r4, lsl #18
    1a80:	12000001 	andne	r0, r0, #1
    1a84:	05760113 	ldrbeq	r0, [r6, #-275]!	; 0x113
    1a88:	6d010000 	stcvs	0, cr0, [r1]
    1a8c:	0001d801 	andeq	sp, r1, r1, lsl #16
    1a90:	000f1800 	andeq	r1, pc, r0, lsl #16
    1a94:	000f3802 	andeq	r3, pc, r2, lsl #16
    1a98:	0f5d0102 	svceq	0x005d0102
    1a9c:	0000057d 	andeq	r0, r0, sp, ror r5
    1aa0:	01d86d01 	bicseq	r6, r8, r1, lsl #26
    1aa4:	50010000 	andpl	r0, r1, r0
    1aa8:	0068630e 	rsbeq	r6, r8, lr, lsl #6
    1aac:	00416d01 	subeq	r6, r1, r1, lsl #26
    1ab0:	51010000 	tstpl	r1, r0
    1ab4:	0005a60f 	andeq	sl, r5, pc, lsl #12
    1ab8:	566d0100 	strbtpl	r0, [sp], -r0, lsl #2
    1abc:	01000000 	tsteq	r0, r0
    1ac0:	00701052 	rsbseq	r1, r0, r2, asr r0
    1ac4:	01256f01 	teqeq	r5, r1, lsl #30
    1ac8:	00000000 	andeq	r0, r0, r0
    1acc:	00000149 	andeq	r0, r0, r9, asr #2
    1ad0:	09160002 	ldmdbeq	r6, {r1}
    1ad4:	01040000 	tsteq	r4, r0
    1ad8:	0000009a 	muleq	r0, sl, r0
    1adc:	0005bb01 	andeq	fp, r5, r1, lsl #22
    1ae0:	0000c500 	andeq	ip, r0, r0, lsl #10
    1ae4:	000f3800 	andeq	r3, pc, r0, lsl #16
    1ae8:	0010ec02 	andseq	lr, r0, r2, lsl #24
    1aec:	0008f502 	andeq	pc, r8, r2, lsl #10
    1af0:	06010200 	streq	r0, [r1], -r0, lsl #4
    1af4:	0000003e 	andeq	r0, r0, lr, lsr r0
    1af8:	3c080102 	stfccs	f0, [r8], {2}
    1afc:	02000000 	andeq	r0, r0, #0
    1b00:	00bb0502 	adcseq	r0, fp, r2, lsl #10
    1b04:	02020000 	andeq	r0, r2, #0
    1b08:	00006307 	andeq	r6, r0, r7, lsl #6
    1b0c:	05040300 	streq	r0, [r4, #-768]	; 0x300
    1b10:	00746e69 	rsbseq	r6, r4, r9, ror #28
    1b14:	56070402 	strpl	r0, [r7], -r2, lsl #8
    1b18:	02000000 	andeq	r0, r0, #0
    1b1c:	00510704 	subseq	r0, r1, r4, lsl #14
    1b20:	04020000 	streq	r0, [r2]
    1b24:	0000ff05 	andeq	pc, r0, r5, lsl #30
    1b28:	07040400 	streq	r0, [r4, -r0, lsl #8]
    1b2c:	45080102 	strmi	r0, [r8, #-258]	; 0x102
    1b30:	05000000 	streq	r0, [r0]
    1b34:	0005da01 	andeq	sp, r5, r1, lsl #20
    1b38:	012a0100 	teqeq	sl, r0, lsl #2
    1b3c:	02000f38 	andeq	r0, r0, #224	; 0xe0
    1b40:	020010ec 	andeq	r1, r0, #236	; 0xec
    1b44:	0000071a 	andeq	r0, r0, sl, lsl r7
    1b48:	000000fc 	strdeq	r0, [r0], -ip
    1b4c:	746d6606 	strbtvc	r6, [sp], #-1542	; 0x606
    1b50:	fc2a0100 	stc2	1, cr0, [sl]
    1b54:	52000000 	andpl	r0, r0, #0
    1b58:	07000007 	streq	r0, [r0, -r7]
    1b5c:	0005b408 	andeq	fp, r5, r8, lsl #8
    1b60:	172c0100 	strne	r0, [ip, -r0, lsl #2]!
    1b64:	05000001 	streq	r0, [r0, #-1]
    1b68:	00120803 	andseq	r0, r2, r3, lsl #16
    1b6c:	70610902 	rsbvc	r0, r1, r2, lsl #18
    1b70:	1c2d0100 	stfnes	f0, [sp]
    1b74:	02000001 	andeq	r0, r0, #1
    1b78:	62095491 	andvs	r5, r9, #-1862270976	; 0x91000000
    1b7c:	01006675 	tsteq	r0, r5, ror r6
    1b80:	0001362e 	andeq	r3, r1, lr, lsr #12
    1b84:	48910200 	ldmmi	r1, {r9}
    1b88:	0100730a 	tsteq	r0, sl, lsl #6
    1b8c:	0001462f 	andeq	r4, r1, pc, lsr #12
    1b90:	00077100 	andeq	r7, r7, r0, lsl #2
    1b94:	00750a00 	rsbseq	r0, r5, r0, lsl #20
    1b98:	00483001 	subeq	r3, r8, r1
    1b9c:	079a0000 	ldreq	r0, [sl, r0]
    1ba0:	630a0000 	movwvs	r0, #40960	; 0xa000
    1ba4:	41310100 	teqmi	r1, r0, lsl #2
    1ba8:	b8000000 	stmdalt	r0, {}
    1bac:	0b000007 	bleq	1bd0 <CONFIG_LOADER_TEXT-0x1ffe430>
    1bb0:	31010069 	tstcc	r1, r9, rrx
    1bb4:	00000041 	andeq	r0, r0, r1, asr #32
    1bb8:	6461700a 	strbtvs	r7, [r1], #-10
    1bbc:	41310100 	teqmi	r1, r0, lsl #2
    1bc0:	ec000000 	stc	0, cr0, [r0], {0}
    1bc4:	00000007 	andeq	r0, r0, r7
    1bc8:	0102040c 	tsteq	r2, ip, lsl #8
    1bcc:	600d0000 	andvs	r0, sp, r0
    1bd0:	0e000000 	cdpeq	0, 0, cr0, cr0, cr0, {0}
    1bd4:	00000060 	andeq	r0, r0, r0, rrx
    1bd8:	00000117 	andeq	r0, r0, r7, lsl r1
    1bdc:	00005d0f 	andeq	r5, r0, pc, lsl #26
    1be0:	0d001000 	stceq	0, cr1, [r0]
    1be4:	00000107 	andeq	r0, r0, r7, lsl #2
    1be8:	0005d010 	andeq	sp, r5, r0, lsl r0
    1bec:	01340400 	teqeq	r4, r0, lsl #8
    1bf0:	cb110000 	blgt	441bf8 <CONFIG_LOADER_TEXT-0x1bbe408>
    1bf4:	34000005 	strcc	r0, [r0], #-5
    1bf8:	02000001 	andeq	r0, r0, #1
    1bfc:	00010023 	andeq	r0, r1, r3, lsr #32
    1c00:	600e0412 	andvs	r0, lr, r2, lsl r4
    1c04:	46000000 	strmi	r0, [r0], -r0
    1c08:	0f000001 	svceq	0x00000001
    1c0c:	0000005d 	andeq	r0, r0, sp, asr r0
    1c10:	040c0009 	streq	r0, [ip], #-9
    1c14:	00000060 	andeq	r0, r0, r0, rrx
	...

Disassembly of section .debug_line:

00000000 <.debug_line>:
   0:	0000012b 	andeq	r0, r0, fp, lsr #2
   4:	00f70002 	rscseq	r0, r7, r2
   8:	01020000 	tsteq	r2, r0
   c:	000d0efb 	strdeq	r0, [sp], -fp
  10:	01010101 	tsteq	r1, r1, lsl #2
  14:	01000000 	tsteq	r0, r0
  18:	61010000 	tstvs	r1, r0
  1c:	6e2f6d72 	mcrvs	13, 1, r6, cr15, cr2, {3}
  20:	2f007364 	svccs	0x00007364
  24:	72657355 	rsbvc	r7, r5, #1409286145	; 0x54000001
  28:	79632f73 	stmdbvc	r3!, {r0, r1, r4, r5, r6, r8, r9, sl, fp, sp}^
  2c:	2f6c6972 	svccs	0x006c6972
  30:	2f766544 	svccs	0x00766544
  34:	2f53444e 	svccs	0x0053444e
  38:	6a6f7250 	bvs	1bdc980 <CONFIG_LOADER_TEXT-0x423680>
  3c:	73746365 	cmnvc	r4, #-1811939327	; 0x94000001
  40:	6572502f 	ldrbvs	r5, [r2, #-47]!	; 0x2f
  44:	392e3078 	stmdbcc	lr!, {r3, r4, r5, r6, ip, sp}
  48:	692f5344 	stmdbvs	pc!, {r2, r6, r8, r9, ip, lr}
  4c:	756c636e 	strbvc	r6, [ip, #-878]!	; 0x36e
  50:	612f6564 	teqvs	pc, r4, ror #10
  54:	2f006d72 	svccs	0x00006d72
  58:	72657355 	rsbvc	r7, r5, #1409286145	; 0x54000001
  5c:	79632f73 	stmdbvc	r3!, {r0, r1, r4, r5, r6, r8, r9, sl, fp, sp}^
  60:	2f6c6972 	svccs	0x006c6972
  64:	2f766544 	svccs	0x00766544
  68:	2f53444e 	svccs	0x0053444e
  6c:	6a6f7250 	bvs	1bdc9b4 <CONFIG_LOADER_TEXT-0x42364c>
  70:	73746365 	cmnvc	r4, #-1811939327	; 0x94000001
  74:	6572502f 	ldrbvs	r5, [r2, #-47]!	; 0x2f
  78:	392e3078 	stmdbcc	lr!, {r3, r4, r5, r6, ip, sp}
  7c:	692f5344 	stmdbvs	pc!, {r2, r6, r8, r9, ip, lr}
  80:	756c636e 	strbvc	r6, [ip, #-878]!	; 0x36e
  84:	732f6564 	teqvc	pc, #419430400	; 0x19000000
  88:	2f007379 	svccs	0x00007379
  8c:	72657355 	rsbvc	r7, r5, #1409286145	; 0x54000001
  90:	79632f73 	stmdbvc	r3!, {r0, r1, r4, r5, r6, r8, r9, sl, fp, sp}^
  94:	2f6c6972 	svccs	0x006c6972
  98:	2f766544 	svccs	0x00766544
  9c:	2f53444e 	svccs	0x0053444e
  a0:	6a6f7250 	bvs	1bdc9e8 <CONFIG_LOADER_TEXT-0x423618>
  a4:	73746365 	cmnvc	r4, #-1811939327	; 0x94000001
  a8:	6572502f 	ldrbvs	r5, [r2, #-47]!	; 0x2f
  ac:	392e3078 	stmdbcc	lr!, {r3, r4, r5, r6, ip, sp}
  b0:	622f5344 	eorvs	r5, pc, #268435457	; 0x10000001
  b4:	622f7073 	eorvs	r7, pc, #115	; 0x73
  b8:	2f746f6f 	svccs	0x00746f6f
  bc:	6c636e69 	stclvs	14, cr6, [r3], #-420	; 0xfffffe5c
  c0:	00656475 	rsbeq	r6, r5, r5, ror r4
  c4:	61747300 	cmnvs	r4, r0, lsl #6
  c8:	70757472 	rsbsvc	r7, r5, r2, ror r4
  cc:	0100632e 	tsteq	r0, lr, lsr #6
  d0:	79740000 	ldmdbvc	r4!, {}^
  d4:	2e736570 	mrccs	5, 3, r6, cr3, cr0, {3}
  d8:	00020068 	andeq	r0, r2, r8, rrx
  dc:	70797400 	rsbsvc	r7, r9, r0, lsl #8
  e0:	682e7365 	stmdavs	lr!, {r0, r2, r5, r6, r8, r9, ip, sp, lr}
  e4:	00000300 	andeq	r0, r0, r0, lsl #6
  e8:	746f6f62 	strbtvc	r6, [pc], #3938	; f0 <CONFIG_LOADER_TEXT-0x1ffff10>
  ec:	6f666e69 	svcvs	0x00666e69
  f0:	0300682e 	movweq	r6, #2094	; 0x82e
  f4:	6f620000 	svcvs	0x00620000
  f8:	682e746f 	stmdavs	lr!, {r0, r1, r2, r3, r5, r6, sl, ip, sp, lr}
  fc:	00000400 	andeq	r0, r0, r0, lsl #8
 100:	02050000 	andeq	r0, r5, #0
 104:	02000120 	andeq	r0, r0, #8
 108:	0100c203 	tsteq	r0, r3, lsl #4
 10c:	03016503 	movweq	r6, #5379	; 0x1503
 110:	6a032e16 	bvs	cb970 <CONFIG_LOADER_TEXT-0x1f34690>
 114:	2e0d032e 	cdpcs	3, 0, cr0, cr13, cr14, {1}
 118:	032e0903 	teqeq	lr, #49152	; 0xc000
 11c:	4f4b2e6f 	svcmi	0x004b2e6f
 120:	4b4b504b 	blmi	12d4254 <CONFIG_LOADER_TEXT-0xd2bdac>
 124:	032e7903 	teqeq	lr, #49152	; 0xc000
 128:	04022e10 	streq	r2, [r2], #-3600	; 0xe10
 12c:	4c010100 	stfmis	f0, [r1], {0}
 130:	02000000 	andeq	r0, r0, #0
 134:	00002600 	andeq	r2, r0, r0, lsl #12
 138:	fb010200 	blx	40942 <CONFIG_LOADER_TEXT-0x1fbf6be>
 13c:	01000d0e 	tsteq	r0, lr, lsl #26
 140:	00010101 	andeq	r0, r1, r1, lsl #2
 144:	00010000 	andeq	r0, r1, r0
 148:	72610100 	rsbvc	r0, r1, #0
 14c:	646e2f6d 	strbtvs	r2, [lr], #-3949	; 0xf6d
 150:	64000073 	strvs	r0, [r0], #-115	; 0x73
 154:	67756265 	ldrbvs	r6, [r5, -r5, ror #4]!
 158:	0100632e 	tsteq	r0, lr, lsr #6
 15c:	00000000 	andeq	r0, r0, r0
 160:	01740205 	cmneq	r4, r5, lsl #4
 164:	c0030200 	andgt	r0, r3, r0, lsl #4
 168:	03140100 	tsteq	r4, #0
 16c:	30342e66 	eorscc	r2, r4, r6, ror #28
 170:	454f682c 	strbmi	r6, [pc, #-2092]	; fffff94c <CONFIG_SYSPAGE_BASE+0xf4fff94c>
 174:	2f2d672f 	svccs	0x002d672f
 178:	04022b2f 	streq	r2, [r2], #-2863	; 0xb2f
 17c:	da010100 	ble	40584 <CONFIG_LOADER_TEXT-0x1fbfa7c>
 180:	02000000 	andeq	r0, r0, #0
 184:	0000a700 	andeq	sl, r0, r0, lsl #14
 188:	fb010200 	blx	40992 <CONFIG_LOADER_TEXT-0x1fbf66e>
 18c:	01000d0e 	tsteq	r0, lr, lsl #26
 190:	00010101 	andeq	r0, r1, r1, lsl #2
 194:	00010000 	andeq	r0, r1, r0
 198:	72610100 	rsbvc	r0, r1, #0
 19c:	72612f6d 	rsbvc	r2, r1, #436	; 0x1b4
 1a0:	2f006863 	svccs	0x00006863
 1a4:	72657355 	rsbvc	r7, r5, #1409286145	; 0x54000001
 1a8:	79632f73 	stmdbvc	r3!, {r0, r1, r4, r5, r6, r8, r9, sl, fp, sp}^
 1ac:	2f6c6972 	svccs	0x006c6972
 1b0:	2f766544 	svccs	0x00766544
 1b4:	2f53444e 	svccs	0x0053444e
 1b8:	6a6f7250 	bvs	1bdcb00 <CONFIG_LOADER_TEXT-0x423500>
 1bc:	73746365 	cmnvc	r4, #-1811939327	; 0x94000001
 1c0:	6572502f 	ldrbvs	r5, [r2, #-47]!	; 0x2f
 1c4:	392e3078 	stmdbcc	lr!, {r3, r4, r5, r6, ip, sp}
 1c8:	692f5344 	stmdbvs	pc!, {r2, r6, r8, r9, ip, lr}
 1cc:	756c636e 	strbvc	r6, [ip, #-878]!	; 0x36e
 1d0:	612f6564 	teqvs	pc, r4, ror #10
 1d4:	2f006d72 	svccs	0x00006d72
 1d8:	72657355 	rsbvc	r7, r5, #1409286145	; 0x54000001
 1dc:	79632f73 	stmdbvc	r3!, {r0, r1, r4, r5, r6, r8, r9, sl, fp, sp}^
 1e0:	2f6c6972 	svccs	0x006c6972
 1e4:	2f766544 	svccs	0x00766544
 1e8:	2f53444e 	svccs	0x0053444e
 1ec:	6a6f7250 	bvs	1bdcb34 <CONFIG_LOADER_TEXT-0x4234cc>
 1f0:	73746365 	cmnvc	r4, #-1811939327	; 0x94000001
 1f4:	6572502f 	ldrbvs	r5, [r2, #-47]!	; 0x2f
 1f8:	392e3078 	stmdbcc	lr!, {r3, r4, r5, r6, ip, sp}
 1fc:	692f5344 	stmdbvs	pc!, {r2, r6, r8, r9, ip, lr}
 200:	756c636e 	strbvc	r6, [ip, #-878]!	; 0x36e
 204:	732f6564 	teqvc	pc, #419430400	; 0x19000000
 208:	00007379 	andeq	r7, r0, r9, ror r3
 20c:	5f666c65 	svcpl	0x00666c65
 210:	6f6c6572 	svcvs	0x006c6572
 214:	00632e63 	rsbeq	r2, r3, r3, ror #28
 218:	74000001 	strvc	r0, [r0], #-1
 21c:	73657079 	cmnvc	r5, #121	; 0x79
 220:	0200682e 	andeq	r6, r0, #3014656	; 0x2e0000
 224:	6c650000 	stclvs	0, cr0, [r5]
 228:	00682e66 	rsbeq	r2, r8, r6, ror #28
 22c:	00000003 	andeq	r0, r0, r3
 230:	c8020500 	stmdagt	r2, {r8, sl}
 234:	03020001 	movweq	r0, #8193	; 0x2001
 238:	300100ce 	andcc	r0, r1, lr, asr #1
 23c:	6651034c 	ldrbvs	r0, [r1], -ip, asr #6
 240:	342a2c34 	strtcc	r2, [sl], #-3124	; 0xc34
 244:	322e7a03 	eorcc	r7, lr, #12288	; 0x3000
 248:	67780830 	undefined instruction 0x67780830
 24c:	2f2b3152 	svccs	0x002b3152
 250:	83302f2f 	teqhi	r0, #188	; 0xbc
 254:	6a683468 	bvs	1a0d3fc <CONFIG_LOADER_TEXT-0x5f2c04>
 258:	01000a02 	tsteq	r0, r2, lsl #20
 25c:	00011c01 	andeq	r1, r1, r1, lsl #24
 260:	f3000200 	vhsub.u8	d0, d0, d0
 264:	02000000 	andeq	r0, r0, #0
 268:	0d0efb01 	vstreq	d15, [lr, #-4]
 26c:	01010100 	tsteq	r1, r0, lsl #2
 270:	00000001 	andeq	r0, r0, r1
 274:	01000001 	tsteq	r0, r1
 278:	6d6d6f63 	stclvs	15, cr6, [sp, #-396]!	; 0xfffffe74
 27c:	2f006e6f 	svccs	0x00006e6f
 280:	72657355 	rsbvc	r7, r5, #1409286145	; 0x54000001
 284:	79632f73 	stmdbvc	r3!, {r0, r1, r4, r5, r6, r8, r9, sl, fp, sp}^
 288:	2f6c6972 	svccs	0x006c6972
 28c:	2f766544 	svccs	0x00766544
 290:	2f53444e 	svccs	0x0053444e
 294:	6a6f7250 	bvs	1bdcbdc <CONFIG_LOADER_TEXT-0x423424>
 298:	73746365 	cmnvc	r4, #-1811939327	; 0x94000001
 29c:	6572502f 	ldrbvs	r5, [r2, #-47]!	; 0x2f
 2a0:	392e3078 	stmdbcc	lr!, {r3, r4, r5, r6, ip, sp}
 2a4:	692f5344 	stmdbvs	pc!, {r2, r6, r8, r9, ip, lr}
 2a8:	756c636e 	strbvc	r6, [ip, #-878]!	; 0x36e
 2ac:	612f6564 	teqvs	pc, r4, ror #10
 2b0:	2f006d72 	svccs	0x00006d72
 2b4:	72657355 	rsbvc	r7, r5, #1409286145	; 0x54000001
 2b8:	79632f73 	stmdbvc	r3!, {r0, r1, r4, r5, r6, r8, r9, sl, fp, sp}^
 2bc:	2f6c6972 	svccs	0x006c6972
 2c0:	2f766544 	svccs	0x00766544
 2c4:	2f53444e 	svccs	0x0053444e
 2c8:	6a6f7250 	bvs	1bdcc10 <CONFIG_LOADER_TEXT-0x4233f0>
 2cc:	73746365 	cmnvc	r4, #-1811939327	; 0x94000001
 2d0:	6572502f 	ldrbvs	r5, [r2, #-47]!	; 0x2f
 2d4:	392e3078 	stmdbcc	lr!, {r3, r4, r5, r6, ip, sp}
 2d8:	692f5344 	stmdbvs	pc!, {r2, r6, r8, r9, ip, lr}
 2dc:	756c636e 	strbvc	r6, [ip, #-878]!	; 0x36e
 2e0:	732f6564 	teqvc	pc, #419430400	; 0x19000000
 2e4:	2f007379 	svccs	0x00007379
 2e8:	72657355 	rsbvc	r7, r5, #1409286145	; 0x54000001
 2ec:	79632f73 	stmdbvc	r3!, {r0, r1, r4, r5, r6, r8, r9, sl, fp, sp}^
 2f0:	2f6c6972 	svccs	0x006c6972
 2f4:	2f766544 	svccs	0x00766544
 2f8:	2f53444e 	svccs	0x0053444e
 2fc:	6a6f7250 	bvs	1bdcc44 <CONFIG_LOADER_TEXT-0x4233bc>
 300:	73746365 	cmnvc	r4, #-1811939327	; 0x94000001
 304:	6572502f 	ldrbvs	r5, [r2, #-47]!	; 0x2f
 308:	392e3078 	stmdbcc	lr!, {r3, r4, r5, r6, ip, sp}
 30c:	622f5344 	eorvs	r5, pc, #268435457	; 0x10000001
 310:	622f7073 	eorvs	r7, pc, #115	; 0x73
 314:	2f746f6f 	svccs	0x00746f6f
 318:	6c636e69 	stclvs	14, cr6, [r3], #-420	; 0xfffffe5c
 31c:	00656475 	rsbeq	r6, r5, r5, ror r4
 320:	69616d00 	stmdbvs	r1!, {r8, sl, fp, sp, lr}^
 324:	00632e6e 	rsbeq	r2, r3, lr, ror #28
 328:	74000001 	strvc	r0, [r0], #-1
 32c:	73657079 	cmnvc	r5, #121	; 0x79
 330:	0200682e 	andeq	r6, r0, #3014656	; 0x2e0000
 334:	79740000 	ldmdbvc	r4!, {}^
 338:	2e736570 	mrccs	5, 3, r6, cr3, cr0, {3}
 33c:	00030068 	andeq	r0, r3, r8, rrx
 340:	6f6f6200 	svcvs	0x006f6200
 344:	666e6974 	undefined instruction 0x666e6974
 348:	00682e6f 	rsbeq	r2, r8, pc, ror #28
 34c:	62000003 	andvs	r0, r0, #3
 350:	2e746f6f 	cdpcs	15, 7, cr6, cr4, cr15, {3}
 354:	00040068 	andeq	r0, r4, r8, rrx
 358:	05000000 	streq	r0, [r0]
 35c:	0002a402 	andeq	sl, r2, r2, lsl #8
 360:	00e50302 	rsceq	r0, r5, r2, lsl #6
 364:	4e034c01 	cdpmi	12, 0, cr4, cr3, cr1, {0}
 368:	312b1582 	smlawbcc	fp, r2, r5, r1
 36c:	334f2fa3 	movtcc	r2, #65443	; 0xffa3
 370:	2f333333 	svccs	0x00333333
 374:	2e0e0367 	cdpcs	3, 0, cr0, cr14, cr7, {3}
 378:	01001202 	tsteq	r0, r2, lsl #4
 37c:	0000cb01 	andeq	ip, r0, r1, lsl #22
 380:	b4000200 	strlt	r0, [r0], #-512	; 0x200
 384:	02000000 	andeq	r0, r0, #0
 388:	0d0efb01 	vstreq	d15, [lr, #-4]
 38c:	01010100 	tsteq	r1, r0, lsl #2
 390:	00000001 	andeq	r0, r0, r1
 394:	01000001 	tsteq	r0, r1
 398:	6d6d6f63 	stclvs	15, cr6, [sp, #-396]!	; 0xfffffe74
 39c:	2f006e6f 	svccs	0x00006e6f
 3a0:	72657355 	rsbvc	r7, r5, #1409286145	; 0x54000001
 3a4:	79632f73 	stmdbvc	r3!, {r0, r1, r4, r5, r6, r8, r9, sl, fp, sp}^
 3a8:	2f6c6972 	svccs	0x006c6972
 3ac:	2f766544 	svccs	0x00766544
 3b0:	2f53444e 	svccs	0x0053444e
 3b4:	6a6f7250 	bvs	1bdccfc <CONFIG_LOADER_TEXT-0x423304>
 3b8:	73746365 	cmnvc	r4, #-1811939327	; 0x94000001
 3bc:	6572502f 	ldrbvs	r5, [r2, #-47]!	; 0x2f
 3c0:	392e3078 	stmdbcc	lr!, {r3, r4, r5, r6, ip, sp}
 3c4:	692f5344 	stmdbvs	pc!, {r2, r6, r8, r9, ip, lr}
 3c8:	756c636e 	strbvc	r6, [ip, #-878]!	; 0x36e
 3cc:	612f6564 	teqvs	pc, r4, ror #10
 3d0:	2f006d72 	svccs	0x00006d72
 3d4:	72657355 	rsbvc	r7, r5, #1409286145	; 0x54000001
 3d8:	79632f73 	stmdbvc	r3!, {r0, r1, r4, r5, r6, r8, r9, sl, fp, sp}^
 3dc:	2f6c6972 	svccs	0x006c6972
 3e0:	2f766544 	svccs	0x00766544
 3e4:	2f53444e 	svccs	0x0053444e
 3e8:	6a6f7250 	bvs	1bdcd30 <CONFIG_LOADER_TEXT-0x4232d0>
 3ec:	73746365 	cmnvc	r4, #-1811939327	; 0x94000001
 3f0:	6572502f 	ldrbvs	r5, [r2, #-47]!	; 0x2f
 3f4:	392e3078 	stmdbcc	lr!, {r3, r4, r5, r6, ip, sp}
 3f8:	692f5344 	stmdbvs	pc!, {r2, r6, r8, r9, ip, lr}
 3fc:	756c636e 	strbvc	r6, [ip, #-878]!	; 0x36e
 400:	732f6564 	teqvc	pc, #419430400	; 0x19000000
 404:	00007379 	andeq	r7, r0, r9, ror r3
 408:	746f6f62 	strbtvc	r6, [pc], #3938	; 410 <CONFIG_LOADER_TEXT-0x1fffbf0>
 40c:	6f666e69 	svcvs	0x00666e69
 410:	0100632e 	tsteq	r0, lr, lsr #6
 414:	79740000 	ldmdbvc	r4!, {}^
 418:	2e736570 	mrccs	5, 3, r6, cr3, cr0, {3}
 41c:	00020068 	andeq	r0, r2, r8, rrx
 420:	70797400 	rsbsvc	r7, r9, r0, lsl #8
 424:	682e7365 	stmdavs	lr!, {r0, r2, r5, r6, r8, r9, ip, sp, lr}
 428:	00000300 	andeq	r0, r0, r0, lsl #6
 42c:	746f6f62 	strbtvc	r6, [pc], #3938	; 434 <CONFIG_LOADER_TEXT-0x1fffbcc>
 430:	6f666e69 	svcvs	0x00666e69
 434:	0300682e 	movweq	r6, #2094	; 0x82e
 438:	00000000 	andeq	r0, r0, r0
 43c:	032c0205 	teqeq	ip, #1342177280	; 0x50000000
 440:	dc030200 	sfmle	f0, 4, [r3], {0}	; (stcle 2, cr0, [r3], {0})
 444:	02130100 	andseq	r0, r3, #0
 448:	01010002 	tsteq	r1, r2
 44c:	0000019a 	muleq	r0, sl, r1
 450:	00fb0002 	rscseq	r0, fp, r2
 454:	01020000 	tsteq	r2, r0
 458:	000d0efb 	strdeq	r0, [sp], -fp
 45c:	01010101 	tsteq	r1, r1, lsl #2
 460:	01000000 	tsteq	r0, r0
 464:	63010000 	movwvs	r0, #4096	; 0x1000
 468:	6f6d6d6f 	svcvs	0x006d6d6f
 46c:	552f006e 	strpl	r0, [pc, #-110]!	; 406 <CONFIG_LOADER_TEXT-0x1fffbfa>
 470:	73726573 	cmnvc	r2, #482344960	; 0x1cc00000
 474:	7279632f 	rsbsvc	r6, r9, #-1140850688	; 0xbc000000
 478:	442f6c69 	strtmi	r6, [pc], #3177	; 480 <CONFIG_LOADER_TEXT-0x1fffb80>
 47c:	4e2f7665 	cfmadda32mi	mvax3, mvax7, mvfx15, mvfx5
 480:	502f5344 	eorpl	r5, pc, r4, asr #6
 484:	656a6f72 	strbvs	r6, [sl, #-3954]!	; 0xf72
 488:	2f737463 	svccs	0x00737463
 48c:	78657250 	stmdavc	r5!, {r4, r6, r9, ip, sp, lr}^
 490:	44392e30 	ldrtmi	r2, [r9], #-3632	; 0xe30
 494:	6e692f53 	mcrvs	15, 3, r2, cr9, cr3, {2}
 498:	64756c63 	ldrbtvs	r6, [r5], #-3171	; 0xc63
 49c:	72612f65 	rsbvc	r2, r1, #404	; 0x194
 4a0:	552f006d 	strpl	r0, [pc, #-109]!	; 43b <CONFIG_LOADER_TEXT-0x1fffbc5>
 4a4:	73726573 	cmnvc	r2, #482344960	; 0x1cc00000
 4a8:	7279632f 	rsbsvc	r6, r9, #-1140850688	; 0xbc000000
 4ac:	442f6c69 	strtmi	r6, [pc], #3177	; 4b4 <CONFIG_LOADER_TEXT-0x1fffb4c>
 4b0:	4e2f7665 	cfmadda32mi	mvax3, mvax7, mvfx15, mvfx5
 4b4:	502f5344 	eorpl	r5, pc, r4, asr #6
 4b8:	656a6f72 	strbvs	r6, [sl, #-3954]!	; 0xf72
 4bc:	2f737463 	svccs	0x00737463
 4c0:	78657250 	stmdavc	r5!, {r4, r6, r9, ip, sp, lr}^
 4c4:	44392e30 	ldrtmi	r2, [r9], #-3632	; 0xe30
 4c8:	6e692f53 	mcrvs	15, 3, r2, cr9, cr3, {2}
 4cc:	64756c63 	ldrbtvs	r6, [r5], #-3171	; 0xc63
 4d0:	79732f65 	ldmdbvc	r3!, {r0, r2, r5, r6, r8, r9, sl, fp, sp}^
 4d4:	552f0073 	strpl	r0, [pc, #-115]!	; 469 <CONFIG_LOADER_TEXT-0x1fffb97>
 4d8:	73726573 	cmnvc	r2, #482344960	; 0x1cc00000
 4dc:	7279632f 	rsbsvc	r6, r9, #-1140850688	; 0xbc000000
 4e0:	442f6c69 	strtmi	r6, [pc], #3177	; 4e8 <CONFIG_LOADER_TEXT-0x1fffb18>
 4e4:	4e2f7665 	cfmadda32mi	mvax3, mvax7, mvfx15, mvfx5
 4e8:	502f5344 	eorpl	r5, pc, r4, asr #6
 4ec:	656a6f72 	strbvs	r6, [sl, #-3954]!	; 0xf72
 4f0:	2f737463 	svccs	0x00737463
 4f4:	78657250 	stmdavc	r5!, {r4, r6, r9, ip, sp, lr}^
 4f8:	44392e30 	ldrtmi	r2, [r9], #-3632	; 0xe30
 4fc:	73622f53 	cmnvc	r2, #332	; 0x14c
 500:	6f622f70 	svcvs	0x00622f70
 504:	692f746f 	stmdbvs	pc!, {r0, r1, r2, r3, r5, r6, sl, ip, sp, lr}
 508:	756c636e 	strbvc	r6, [ip, #-878]!	; 0x36e
 50c:	00006564 	andeq	r6, r0, r4, ror #10
 510:	64616f6c 	strbtvs	r6, [r1], #-3948	; 0xf6c
 514:	0100632e 	tsteq	r0, lr, lsr #6
 518:	79740000 	ldmdbvc	r4!, {}^
 51c:	2e736570 	mrccs	5, 3, r6, cr3, cr0, {3}
 520:	00020068 	andeq	r0, r2, r8, rrx
 524:	70797400 	rsbsvc	r7, r9, r0, lsl #8
 528:	682e7365 	stmdavs	lr!, {r0, r2, r5, r6, r8, r9, ip, sp, lr}
 52c:	00000300 	andeq	r0, r0, r0, lsl #6
 530:	746f6f62 	strbtvc	r6, [pc], #3938	; 538 <CONFIG_LOADER_TEXT-0x1fffac8>
 534:	6f666e69 	svcvs	0x00666e69
 538:	0300682e 	movweq	r6, #2094	; 0x82e
 53c:	72610000 	rsbvc	r0, r1, #0
 540:	0300682e 	movweq	r6, #2094	; 0x82e
 544:	6f620000 	svcvs	0x00620000
 548:	682e746f 	stmdavs	lr!, {r0, r1, r2, r3, r5, r6, sl, ip, sp, lr}
 54c:	00000400 	andeq	r0, r0, r0, lsl #8
 550:	02050000 	andeq	r0, r5, #0
 554:	02000330 	andeq	r0, r0, #-1073741824	; 0xc0000000
 558:	01019703 	tsteq	r1, r3, lsl #14
 55c:	9f4d2b31 	svcls	0x004d2b31
 560:	2fa03083 	svccs	0x00a03083
 564:	a130bc2d 	teqge	r0, sp, lsr #24
 568:	8e03699f 	mcrhi	9, 0, r6, cr3, cr15, {4}
 56c:	0d039e7f 	stceq	14, cr9, [r3, #-508]	; 0xfffffe04
 570:	2e730301 	cdpcs	3, 7, cr0, cr3, cr1, {0}
 574:	302e0b03 	eorcc	r0, lr, r3, lsl #22
 578:	7803362c 	stmdavc	r3, {r2, r3, r5, r9, sl, ip, sp}
 57c:	03352f2e 	teqeq	r5, #184	; 0xb8
 580:	76032e79 	undefined instruction 0x76032e79
 584:	2e11032e 	cdpcs	3, 1, cr0, cr1, cr14, {1}
 588:	032e6f03 	teqeq	lr, #12
 58c:	50672e11 	rsbpl	r2, r7, r1, lsl lr
 590:	9f4b4f9f 	svcls	0x004b4f9f
 594:	2d2f4b4b 	fstmdbxcs	pc!, {d4-d40}	;@ Deprecated
 598:	d403832f 	strle	r8, [r3], #-815	; 0x32f
 59c:	b2034a00 	andlt	r4, r3, #0
 5a0:	e8032e7f 	stmda	r3, {r0, r1, r2, r3, r4, r5, r6, r9, sl, fp, sp}
 5a4:	03304a00 	teqeq	r0, #0
 5a8:	4b2e7f99 	blmi	ba0414 <CONFIG_LOADER_TEXT-0x145fbec>
 5ac:	db4d4c9f 	blle	1353830 <CONFIG_LOADER_TEXT-0xcac7d0>
 5b0:	ba00c603 	blt	31dc4 <CONFIG_LOADER_TEXT-0x1fce23c>
 5b4:	35667903 	strbcc	r7, [r6, #-2307]!	; 0x903
 5b8:	4b322d4b 	blmi	c8baec <CONFIG_LOADER_TEXT-0x1374514>
 5bc:	0c034b2f 	stceq	11, cr4, [r3], {47}	; 0x2f
 5c0:	2e770366 	cdpcs	3, 7, cr0, cr7, cr6, {3}
 5c4:	032e0903 	teqeq	lr, #49152	; 0xc000
 5c8:	352f2e78 	strcc	r2, [pc, #-3704]!	; fffff758 <CONFIG_SYSPAGE_BASE+0xf4fff758>
 5cc:	4b2a322f 	blmi	a8ce90 <CONFIG_LOADER_TEXT-0x1573170>
 5d0:	a9036867 	stmdbge	r3, {r0, r1, r2, r5, r6, fp, sp, lr}
 5d4:	2f844a7f 	svccs	0x00844a7f
 5d8:	2f302c4f 	svccs	0x00302c4f
 5dc:	2c682f50 	stclcs	15, cr2, [r8], #-320	; 0xfffffec0
 5e0:	4c2d674b 	stcmi	7, cr6, [sp], #-300	; 0xfffffed4
 5e4:	00280267 	eoreq	r0, r8, r7, ror #4
 5e8:	02200101 	eoreq	r0, r0, #1073741824	; 0x40000000
 5ec:	00020000 	andeq	r0, r2, r0
 5f0:	000000fb 	strdeq	r0, [r0], -fp
 5f4:	0efb0102 	cdpeq	1, 15, cr0, cr11, cr2, {0}
 5f8:	0101000d 	tsteq	r1, sp
 5fc:	00000101 	andeq	r0, r0, r1, lsl #2
 600:	00000100 	andeq	r0, r0, r0, lsl #2
 604:	6d6f6301 	stclvs	3, cr6, [pc, #-4]!
 608:	006e6f6d 	rsbeq	r6, lr, sp, ror #30
 60c:	6573552f 	ldrbvs	r5, [r3, #-1327]!	; 0x52f
 610:	632f7372 	teqvs	pc, #-939524095	; 0xc8000001
 614:	6c697279 	sfmvs	f7, 2, [r9], #-484	; (stclvs 2, cr7, [r9], #-484)	; 0xfffffe1c
 618:	7665442f 	strbtvc	r4, [r5], -pc, lsr #8
 61c:	53444e2f 	movtpl	r4, #20015	; 0x4e2f
 620:	6f72502f 	svcvs	0x0072502f
 624:	7463656a 	strbtvc	r6, [r3], #-1386	; 0x56a
 628:	72502f73 	subsvc	r2, r0, #460	; 0x1cc
 62c:	2e307865 	cdpcs	8, 3, cr7, cr0, cr5, {3}
 630:	2f534439 	svccs	0x00534439
 634:	6c636e69 	stclvs	14, cr6, [r3], #-420	; 0xfffffe5c
 638:	2f656475 	svccs	0x00656475
 63c:	006d7261 	rsbeq	r7, sp, r1, ror #4
 640:	6573552f 	ldrbvs	r5, [r3, #-1327]!	; 0x52f
 644:	632f7372 	teqvs	pc, #-939524095	; 0xc8000001
 648:	6c697279 	sfmvs	f7, 2, [r9], #-484	; (stclvs 2, cr7, [r9], #-484)	; 0xfffffe1c
 64c:	7665442f 	strbtvc	r4, [r5], -pc, lsr #8
 650:	53444e2f 	movtpl	r4, #20015	; 0x4e2f
 654:	6f72502f 	svcvs	0x0072502f
 658:	7463656a 	strbtvc	r6, [r3], #-1386	; 0x56a
 65c:	72502f73 	subsvc	r2, r0, #460	; 0x1cc
 660:	2e307865 	cdpcs	8, 3, cr7, cr0, cr5, {3}
 664:	2f534439 	svccs	0x00534439
 668:	6c636e69 	stclvs	14, cr6, [r3], #-420	; 0xfffffe5c
 66c:	2f656475 	svccs	0x00656475
 670:	00737973 	rsbseq	r7, r3, r3, ror r9
 674:	6573552f 	ldrbvs	r5, [r3, #-1327]!	; 0x52f
 678:	632f7372 	teqvs	pc, #-939524095	; 0xc8000001
 67c:	6c697279 	sfmvs	f7, 2, [r9], #-484	; (stclvs 2, cr7, [r9], #-484)	; 0xfffffe1c
 680:	7665442f 	strbtvc	r4, [r5], -pc, lsr #8
 684:	53444e2f 	movtpl	r4, #20015	; 0x4e2f
 688:	6f72502f 	svcvs	0x0072502f
 68c:	7463656a 	strbtvc	r6, [r3], #-1386	; 0x56a
 690:	72502f73 	subsvc	r2, r0, #460	; 0x1cc
 694:	2e307865 	cdpcs	8, 3, cr7, cr0, cr5, {3}
 698:	2f534439 	svccs	0x00534439
 69c:	2f707362 	svccs	0x00707362
 6a0:	746f6f62 	strbtvc	r6, [pc], #3938	; 6a8 <CONFIG_LOADER_TEXT-0x1fff958>
 6a4:	636e692f 	cmnvs	lr, #770048	; 0xbc000
 6a8:	6564756c 	strbvs	r7, [r4, #-1388]!	; 0x56c
 6ac:	6c650000 	stclvs	0, cr0, [r5]
 6b0:	00632e66 	rsbeq	r2, r3, r6, ror #28
 6b4:	74000001 	strvc	r0, [r0], #-1
 6b8:	73657079 	cmnvc	r5, #121	; 0x79
 6bc:	0200682e 	andeq	r6, r0, #3014656	; 0x2e0000
 6c0:	79740000 	ldmdbvc	r4!, {}^
 6c4:	2e736570 	mrccs	5, 3, r6, cr3, cr0, {3}
 6c8:	00030068 	andeq	r0, r3, r8, rrx
 6cc:	6f6f6200 	svcvs	0x006f6200
 6d0:	666e6974 	undefined instruction 0x666e6974
 6d4:	00682e6f 	rsbeq	r2, r8, pc, ror #28
 6d8:	65000003 	strvs	r0, [r0, #-3]
 6dc:	682e666c 	stmdavs	lr!, {r2, r3, r5, r6, r9, sl, sp, lr}
 6e0:	00000300 	andeq	r0, r0, r0, lsl #6
 6e4:	64616f6c 	strbtvs	r6, [r1], #-3948	; 0xf6c
 6e8:	0400682e 	streq	r6, [r0], #-2094	; 0x82e
 6ec:	00000000 	andeq	r0, r0, r0
 6f0:	06580205 	ldrbeq	r0, [r8], -r5, lsl #4
 6f4:	35030200 	strcc	r0, [r3, #-512]	; 0x200
 6f8:	322a6a01 	eorcc	r6, sl, #4096	; 0x1000
 6fc:	032a6a33 	teqeq	sl, #208896	; 0x33000
 700:	302c2e0a 	eorcc	r2, ip, sl, lsl #28
 704:	302d6768 	eorcc	r6, sp, r8, ror #14
 708:	844b322d 	strbhi	r3, [fp], #-557	; 0x22d
 70c:	03694e4c 	cmneq	r9, #1216	; 0x4c0
 710:	7603820a 	strvc	r8, [r3], -sl, lsl #4
 714:	2e1c032e 	cdpcs	3, 1, cr0, cr12, cr14, {1}
 718:	2c302f2d 	ldccs	15, cr2, [r0], #-180	; 0xffffff4c
 71c:	85312c2f 	ldrhi	r2, [r1, #-3119]!	; 0xc2f
 720:	68676769 	stmdavs	r7!, {r0, r3, r5, r6, r8, r9, sl, sp, lr}^
 724:	2f68694b 	svccs	0x0068694b
 728:	312f3447 	teqcc	pc, r7, asr #8
 72c:	2c4c2f2b 	mcrrcs	15, 2, r2, ip, cr11
 730:	30302c30 	eorscc	r2, r0, r0, lsr ip
 734:	67858467 	strvs	r8, [r5, r7, ror #8]
 738:	5c038568 	cfstr32pl	mvfx8, [r3], {104}	; 0x68
 73c:	9e280382 	cdpls	3, 2, cr0, cr8, cr2, {4}
 740:	332f2b31 	teqcc	pc, #50176	; 0xc400
 744:	67bb6829 	ldrvs	r6, [fp, r9, lsr #16]!
 748:	0367304b 	cmneq	r7, #75	; 0x4b
 74c:	2a6600ff 	bcs	1980b50 <CONFIG_LOADER_TEXT-0x67f4b0>
 750:	30302a4e 	eorscc	r2, r0, lr, asr #20
 754:	79034e2f 	stmdbvc	r3, {r0, r1, r2, r3, r5, r9, sl, fp, lr}
 758:	4ba2312e 	blmi	fe88cc18 <CONFIG_SYSPAGE_BASE+0xf388cc18>
 75c:	67676768 	strbvs	r6, [r7, -r8, ror #14]!
 760:	6a230868 	bvs	8c2908 <CONFIG_LOADER_TEXT-0x173d6f8>
 764:	820b034b 	andhi	r0, fp, #738197505	; 0x2c000001
 768:	842f2d4b 	strthi	r2, [pc], #3403	; 770 <CONFIG_LOADER_TEXT-0x1fff890>
 76c:	334c6785 	movtcc	r6, #51077	; 0xc785
 770:	2a4e2f29 	bcs	138c41c <CONFIG_LOADER_TEXT-0xc73be4>
 774:	30322a32 	eorscc	r2, r2, r2, lsr sl
 778:	2d854c67 	stccs	12, cr4, [r5, #412]	; 0x19c
 77c:	2d2f2d2f 	stccs	13, cr2, [pc, #-188]!	; 0xffffff44
 780:	834b2f2f 	movthi	r2, #48943	; 0xbf2f
 784:	2f2d2f4c 	svccs	0x002d2f4c
 788:	48032f49 	stmdami	r3, {r0, r3, r6, r8, r9, sl, fp, sp}
 78c:	00c0032e 	sbceq	r0, r0, lr, lsr #6
 790:	322d7fba 	eorcc	r7, sp, #744	; 0x2e8
 794:	2f62322a 	svccs	0x0062322a
 798:	30312f2d 	eorscc	r2, r1, sp, lsr #30
 79c:	4b2d4b67 	blmi	b53540 <CONFIG_LOADER_TEXT-0x14acac0>
 7a0:	314b2d2f 	cmpcc	fp, pc, lsr #26
 7a4:	9e7f8b03 	vaddls.f64	d24, d15, d3
 7a8:	6600f703 	strvs	pc, [r0], -r3, lsl #14
 7ac:	827f8503 	rsbshi	r8, pc, #12582912	; 0xc00000
 7b0:	a0bc684c 	adcsge	r6, ip, ip, asr #16
 7b4:	a08368a0 	addge	r6, r3, r0, lsr #17
 7b8:	03824803 	orreq	r4, r2, #196608	; 0x30000
 7bc:	77034a09 	strvc	r4, [r3, -r9, lsl #20]
 7c0:	2e09032e 	cdpcs	3, 0, cr0, cr9, cr14, {1}
 7c4:	7803364c 	stmdavc	r3, {r2, r3, r6, r9, sl, ip, sp}
 7c8:	3e084d2e 	cdpcc	13, 0, cr4, cr8, cr14, {1}
 7cc:	8768bb84 	strbhi	fp, [r8, -r4, lsl #23]!
 7d0:	2e630368 	cdpcs	3, 6, cr0, cr3, cr8, {3}
 7d4:	034a0a03 	movteq	r0, #43523	; 0xaa03
 7d8:	3f032e76 	svccc	0x00032e76
 7dc:	7fa60366 	svcvc	0x00a60366
 7e0:	2f2d4b82 	svccs	0x002d4b82
 7e4:	2e0a034b 	cdpcs	3, 0, cr0, cr10, cr11, {2}
 7e8:	032e7603 	teqeq	lr, #3145728	; 0x300000
 7ec:	76032e0a 	strvc	r2, [r3], -sl, lsl #28
 7f0:	3e08312e 	adfccep	f3, f0, #0.5
 7f4:	0330a29f 	teqeq	r0, #-268435447	; 0xf0000009
 7f8:	2c4c2e71 	mcrrcs	14, 7, r2, ip, cr1
 7fc:	8201c303 	andhi	ip, r1, #201326592	; 0xc000000
 800:	7ded037f 	stclvc	3, cr0, [sp, #508]!	; 0x1fc
 804:	304b2008 	subcc	r2, fp, r8
 808:	005002a0 	subseq	r0, r0, r0, lsr #5
 80c:	003c0101 	eorseq	r0, ip, r1, lsl #2
 810:	00020000 	andeq	r0, r2, r0
 814:	00000026 	andeq	r0, r0, r6, lsr #32
 818:	0efb0102 	cdpeq	1, 15, cr0, cr11, cr2, {0}
 81c:	0101000d 	tsteq	r1, sp
 820:	00000101 	andeq	r0, r0, r1, lsl #2
 824:	00000100 	andeq	r0, r0, r0, lsl #2
 828:	6d6f6301 	stclvs	3, cr6, [pc, #-4]!
 82c:	006e6f6d 	rsbeq	r6, lr, sp, ror #30
 830:	6c707300 	ldclvs	3, cr7, [r0]
 834:	2e687361 	cdpcs	3, 6, cr7, cr8, cr1, {3}
 838:	00010063 	andeq	r0, r1, r3, rrx
 83c:	05000000 	streq	r0, [r0]
 840:	000dfc02 	andeq	pc, sp, r2, lsl #24
 844:	01250302 	teqeq	r5, r2, lsl #6
 848:	00020218 	andeq	r0, r2, r8, lsl r2
 84c:	00a30101 	adceq	r0, r3, r1, lsl #2
 850:	00020000 	andeq	r0, r2, r0
 854:	00000065 	andeq	r0, r0, r5, rrx
 858:	0efb0102 	cdpeq	1, 15, cr0, cr11, cr2, {0}
 85c:	0101000d 	tsteq	r1, sp
 860:	00000101 	andeq	r0, r0, r1, lsl #2
 864:	00000100 	andeq	r0, r0, r0, lsl #2
 868:	6d6f6301 	stclvs	3, cr6, [pc, #-4]!
 86c:	006e6f6d 	rsbeq	r6, lr, sp, ror #30
 870:	6573552f 	ldrbvs	r5, [r3, #-1327]!	; 0x52f
 874:	632f7372 	teqvs	pc, #-939524095	; 0xc8000001
 878:	6c697279 	sfmvs	f7, 2, [r9], #-484	; (stclvs 2, cr7, [r9], #-484)	; 0xfffffe1c
 87c:	7665442f 	strbtvc	r4, [r5], -pc, lsr #8
 880:	53444e2f 	movtpl	r4, #20015	; 0x4e2f
 884:	6f72502f 	svcvs	0x0072502f
 888:	7463656a 	strbtvc	r6, [r3], #-1386	; 0x56a
 88c:	72502f73 	subsvc	r2, r0, #460	; 0x1cc
 890:	2e307865 	cdpcs	8, 3, cr7, cr0, cr5, {3}
 894:	2f534439 	svccs	0x00534439
 898:	6c636e69 	stclvs	14, cr6, [r3], #-420	; 0xfffffe5c
 89c:	2f656475 	svccs	0x00656475
 8a0:	00737973 	rsbseq	r7, r3, r3, ror r9
 8a4:	72747300 	rsbsvc	r7, r4, #0
 8a8:	2e676e69 	cdpcs	14, 6, cr6, cr7, cr9, {3}
 8ac:	00010063 	andeq	r0, r1, r3, rrx
 8b0:	70797400 	rsbsvc	r7, r9, r0, lsl #8
 8b4:	682e7365 	stmdavs	lr!, {r0, r2, r5, r6, r8, r9, ip, sp, lr}
 8b8:	00000200 	andeq	r0, r0, r0, lsl #4
 8bc:	02050000 	andeq	r0, r5, #0
 8c0:	02000e00 	andeq	r0, r0, #0
 8c4:	2e012903 	cdpcs	9, 0, cr2, cr1, cr3, {0}
 8c8:	a12d2f31 	teqge	sp, r1, lsr pc
 8cc:	36c02c4b 	strbcc	r2, [r0], fp, asr #24
 8d0:	820b0318 	andhi	r0, fp, #1610612736	; 0x60000000
 8d4:	4c2e7503 	cfstr32mi	mvfx7, [lr], #-12
 8d8:	4b4c6a84 	blmi	131b2f0 <CONFIG_LOADER_TEXT-0xce4d10>
 8dc:	312e4e87 	smlawbcc	lr, r7, lr, r4
 8e0:	882bf42f 	stmdahi	fp!, {r0, r1, r2, r3, r5, sl, ip, sp, lr, pc}
 8e4:	2f31014e 	svccs	0x0031014e
 8e8:	01324d81 	teqeq	r2, r1, lsl #27
 8ec:	4d652f31 	stclmi	15, cr2, [r5, #-196]!	; 0xffffff3c
 8f0:	01000202 	tsteq	r0, r2, lsl #4
 8f4:	00008101 	andeq	r8, r0, r1, lsl #2
 8f8:	26000200 	strcs	r0, [r0], -r0, lsl #4
 8fc:	02000000 	andeq	r0, r0, #0
 900:	0d0efb01 	vstreq	d15, [lr, #-4]
 904:	01010100 	tsteq	r1, r0, lsl #2
 908:	00000001 	andeq	r0, r0, r1
 90c:	01000001 	tsteq	r0, r1
 910:	6d6d6f63 	stclvs	15, cr6, [sp, #-396]!	; 0xfffffe74
 914:	00006e6f 	andeq	r6, r0, pc, ror #28
 918:	6e697270 	mcrvs	2, 3, r7, cr9, cr0, {3}
 91c:	632e6674 	teqvs	lr, #121634816	; 0x7400000
 920:	00000100 	andeq	r0, r0, r0, lsl #2
 924:	02050000 	andeq	r0, r5, #0
 928:	02000f38 	andeq	r0, r0, #224	; 0xe0
 92c:	6e012a03 	vmlavs.f32	s4, s2, s6
 930:	03667803 	cmneq	r6, #196608	; 0x30000
 934:	0f032e15 	svceq	0x00032e15
 938:	032c352e 	teqeq	ip, #192937984	; 0xb800000
 93c:	2d2f2e60 	stccs	14, cr2, [pc, #-384]!	; 0xfffffe80
 940:	2f302f2f 	svccs	0x00302f2f
 944:	a192082f 	orrsge	r0, r2, pc, lsr #16
 948:	69672d2f 	stmdbvs	r7!, {r0, r1, r2, r3, r5, r8, sl, fp, sp}^
 94c:	2c30c22d 	lfmcs	f4, 1, [r0], #-180	; (ldccs 2, cr12, [r0], #-180)	; 0xffffff4c
 950:	03666003 	cmneq	r6, #3
 954:	5b032e25 	blpl	cc1f0 <CONFIG_LOADER_TEXT-0x1f33e10>
 958:	2e22032e 	cdpcs	3, 2, cr0, cr2, cr14, {1}
 95c:	2f49834c 	svccs	0x0049834c
 960:	31652f86 	cmncc	r5, r6, lsl #31
 964:	614b2d4b 	cmpvs	fp, fp, asr #26
 968:	49660b03 	stmdbmi	r6!, {r0, r1, r8, r9, fp}^
 96c:	034b4b87 	movteq	r4, #48007	; 0xbb87
 970:	32034a51 	andcc	r4, r3, #331776	; 0x51000
 974:	000c0266 	andeq	r0, ip, r6, ror #4
 978:	Address 0x00000978 is out of bounds.


Disassembly of section .debug_frame:

00000000 <.debug_frame>:
   0:	0000000c 	andeq	r0, r0, ip
   4:	ffffffff 	undefined instruction 0xffffffff
   8:	7c010001 	stcvc	0, cr0, [r1], {1}
   c:	000d0c0e 	andeq	r0, sp, lr, lsl #24
  10:	0000000c 	andeq	r0, r0, ip
  14:	00000000 	andeq	r0, r0, r0
  18:	02000120 	andeq	r0, r0, #8
  1c:	00000054 	andeq	r0, r0, r4, asr r0
  20:	0000000c 	andeq	r0, r0, ip
  24:	ffffffff 	undefined instruction 0xffffffff
  28:	7c010001 	stcvc	0, cr0, [r1], {1}
  2c:	000d0c0e 	andeq	r0, sp, lr, lsl #24
  30:	0000000c 	andeq	r0, r0, ip
  34:	00000020 	andeq	r0, r0, r0, lsr #32
  38:	02000174 	andeq	r0, r0, #29
  3c:	00000004 	andeq	r0, r0, r4
  40:	0000001c 	andeq	r0, r0, ip, lsl r0
  44:	00000020 	andeq	r0, r0, r0, lsr #32
  48:	02000178 	andeq	r0, r0, #30
  4c:	00000050 	andeq	r0, r0, r0, asr r0
  50:	11100e44 	tstne	r0, r4, asr #28
  54:	0611010e 	ldreq	r0, [r1], -lr, lsl #2
  58:	03051102 	movweq	r1, #20738	; 0x5102
  5c:	00040411 	andeq	r0, r4, r1, lsl r4
  60:	0000000c 	andeq	r0, r0, ip
  64:	ffffffff 	undefined instruction 0xffffffff
  68:	7c010001 	stcvc	0, cr0, [r1], {1}
  6c:	000d0c0e 	andeq	r0, sp, lr, lsl #24
  70:	00000018 	andeq	r0, r0, r8, lsl r0
  74:	00000060 	andeq	r0, r0, r0, rrx
  78:	020001c8 	andeq	r0, r0, #50	; 0x32
  7c:	00000018 	andeq	r0, r0, r8, lsl r0
  80:	11080e44 	tstne	r8, r4, asr #28
  84:	0411010e 	ldreq	r0, [r1], #-270	; 0x10e
  88:	00000002 	andeq	r0, r0, r2
  8c:	00000018 	andeq	r0, r0, r8, lsl r0
  90:	00000060 	andeq	r0, r0, r0, rrx
  94:	020001e0 	andeq	r0, r0, #56	; 0x38
  98:	000000c4 	andeq	r0, r0, r4, asr #1
  9c:	11080e44 	tstne	r8, r4, asr #28
  a0:	0411010e 	ldreq	r0, [r1], #-270	; 0x10e
  a4:	00000002 	andeq	r0, r0, r2
  a8:	0000000c 	andeq	r0, r0, ip
  ac:	ffffffff 	undefined instruction 0xffffffff
  b0:	7c010001 	stcvc	0, cr0, [r1], {1}
  b4:	000d0c0e 	andeq	r0, sp, lr, lsl #24
  b8:	00000018 	andeq	r0, r0, r8, lsl r0
  bc:	000000a8 	andeq	r0, r0, r8, lsr #1
  c0:	020002a4 	andeq	r0, r0, #1073741834	; 0x4000000a
  c4:	00000018 	andeq	r0, r0, r8, lsl r0
  c8:	11080e48 	tstne	r8, r8, asr #28
  cc:	0411010e 	ldreq	r0, [r1], #-270	; 0x10e
  d0:	00000002 	andeq	r0, r0, r2
  d4:	00000018 	andeq	r0, r0, r8, lsl r0
  d8:	000000a8 	andeq	r0, r0, r8, lsr #1
  dc:	020002bc 	andeq	r0, r0, #-1073741813	; 0xc000000b
  e0:	00000070 	andeq	r0, r0, r0, ror r0
  e4:	11080e48 	tstne	r8, r8, asr #28
  e8:	0411010e 	ldreq	r0, [r1], #-270	; 0x10e
  ec:	00000002 	andeq	r0, r0, r2
  f0:	0000000c 	andeq	r0, r0, ip
  f4:	ffffffff 	undefined instruction 0xffffffff
  f8:	7c010001 	stcvc	0, cr0, [r1], {1}
  fc:	000d0c0e 	andeq	r0, sp, lr, lsl #24
 100:	0000000c 	andeq	r0, r0, ip
 104:	000000f0 	strdeq	r0, [r0], -r0
 108:	0200032c 	andeq	r0, r0, #-1342177280	; 0xb0000000
 10c:	00000004 	andeq	r0, r0, r4
 110:	0000000c 	andeq	r0, r0, ip
 114:	ffffffff 	undefined instruction 0xffffffff
 118:	7c010001 	stcvc	0, cr0, [r1], {1}
 11c:	000d0c0e 	andeq	r0, sp, lr, lsl #24
 120:	0000001c 	andeq	r0, r0, ip, lsl r0
 124:	00000110 	andeq	r0, r0, r0, lsl r1
 128:	02000330 	andeq	r0, r0, #-1073741824	; 0xc0000000
 12c:	000000b8 	strheq	r0, [r0], -r8
 130:	11100e44 	tstne	r0, r4, asr #28
 134:	0611010e 	ldreq	r0, [r1], -lr, lsl #2
 138:	03051102 	movweq	r1, #20738	; 0x5102
 13c:	00040411 	andeq	r0, r4, r1, lsl r4
 140:	00000030 	andeq	r0, r0, r0, lsr r0
 144:	00000110 	andeq	r0, r0, r0, lsl r1
 148:	020003e8 	andeq	r0, r0, #-1610612733	; 0xa0000003
 14c:	00000270 	andeq	r0, r0, r0, ror r2
 150:	11280e48 	teqne	r8, r8, asr #28
 154:	0b11010e 	bleq	440594 <CONFIG_LOADER_TEXT-0x1bbfa6c>
 158:	030a1102 	movweq	r1, #41218	; 0xa102
 15c:	11040911 	tstne	r4, r1, lsl r9
 160:	07110508 	ldreq	r0, [r1, -r8, lsl #10]
 164:	07061106 	streq	r1, [r6, -r6, lsl #2]
 168:	11080511 	tstne	r8, r1, lsl r5
 16c:	03110904 	tsteq	r1, #65536	; 0x10000
 170:	0000000a 	andeq	r0, r0, sl
 174:	0000000c 	andeq	r0, r0, ip
 178:	ffffffff 	undefined instruction 0xffffffff
 17c:	7c010001 	stcvc	0, cr0, [r1], {1}
 180:	000d0c0e 	andeq	r0, sp, lr, lsl #24
 184:	00000030 	andeq	r0, r0, r0, lsr r0
 188:	00000174 	andeq	r0, r0, r4, ror r1
 18c:	02000658 	andeq	r0, r0, #92274688	; 0x5800000
 190:	000007a4 	andeq	r0, r0, r4, lsr #15
 194:	11240e44 	teqne	r4, r4, asr #28
 198:	0b11010e 	bleq	4405d8 <CONFIG_LOADER_TEXT-0x1bbfa28>
 19c:	030a1102 	movweq	r1, #41218	; 0xa102
 1a0:	11040911 	tstne	r4, r1, lsl r9
 1a4:	07110508 	ldreq	r0, [r1, -r8, lsl #10]
 1a8:	07061106 	streq	r1, [r6, -r6, lsl #2]
 1ac:	11080511 	tstne	r8, r1, lsl r5
 1b0:	0e480904 	cdpeq	9, 4, cr0, cr8, cr4, {0}
 1b4:	00000038 	andeq	r0, r0, r8, lsr r0
 1b8:	0000000c 	andeq	r0, r0, ip
 1bc:	ffffffff 	undefined instruction 0xffffffff
 1c0:	7c010001 	stcvc	0, cr0, [r1], {1}
 1c4:	000d0c0e 	andeq	r0, sp, lr, lsl #24
 1c8:	0000000c 	andeq	r0, r0, ip
 1cc:	000001b8 	undefined instruction 0x000001b8
 1d0:	02000dfc 	andeq	r0, r0, #16128	; 0x3f00
 1d4:	00000004 	andeq	r0, r0, r4
 1d8:	0000000c 	andeq	r0, r0, ip
 1dc:	ffffffff 	undefined instruction 0xffffffff
 1e0:	7c010001 	stcvc	0, cr0, [r1], {1}
 1e4:	000d0c0e 	andeq	r0, sp, lr, lsl #24
 1e8:	00000018 	andeq	r0, r0, r8, lsl r0
 1ec:	000001d8 	ldrdeq	r0, [r0], -r8
 1f0:	02000e00 	andeq	r0, r0, #0
 1f4:	0000004c 	andeq	r0, r0, ip, asr #32
 1f8:	11080e44 	tstne	r8, r4, asr #28
 1fc:	0411010e 	ldreq	r0, [r1], #-270	; 0x10e
 200:	00000002 	andeq	r0, r0, r2
 204:	0000000c 	andeq	r0, r0, ip
 208:	000001d8 	ldrdeq	r0, [r0], -r8
 20c:	02000e4c 	andeq	r0, r0, #1216	; 0x4c0
 210:	00000060 	andeq	r0, r0, r0, rrx
 214:	00000018 	andeq	r0, r0, r8, lsl r0
 218:	000001d8 	ldrdeq	r0, [r0], -r8
 21c:	02000eac 	andeq	r0, r0, #2752	; 0xac0
 220:	00000048 	andeq	r0, r0, r8, asr #32
 224:	11080e44 	tstne	r8, r4, asr #28
 228:	0411010e 	ldreq	r0, [r1], #-270	; 0x10e
 22c:	00000002 	andeq	r0, r0, r2
 230:	0000000c 	andeq	r0, r0, ip
 234:	000001d8 	ldrdeq	r0, [r0], -r8
 238:	02000ef4 	andeq	r0, r0, #3904	; 0xf40
 23c:	00000024 	andeq	r0, r0, r4, lsr #32
 240:	0000000c 	andeq	r0, r0, ip
 244:	000001d8 	ldrdeq	r0, [r0], -r8
 248:	02000f18 	andeq	r0, r0, #96	; 0x60
 24c:	00000020 	andeq	r0, r0, r0, lsr #32
 250:	0000000c 	andeq	r0, r0, ip
 254:	ffffffff 	undefined instruction 0xffffffff
 258:	7c010001 	stcvc	0, cr0, [r1], {1}
 25c:	000d0c0e 	andeq	r0, sp, lr, lsl #24
 260:	0000003c 	andeq	r0, r0, ip, lsr r0
 264:	00000250 	andeq	r0, r0, r0, asr r2
 268:	02000f38 	andeq	r0, r0, #224	; 0xe0
 26c:	000001b4 	undefined instruction 0x000001b4
 270:	44100e44 	ldrmi	r0, [r0], #-3652	; 0xe44
 274:	0e44340e 	cdpeq	4, 4, cr3, cr4, cr14, {0}
 278:	050e1148 	streq	r1, [lr, #-328]	; 0x148
 27c:	11060b11 	tstne	r6, r1, lsl fp
 280:	0911070a 	ldmdbeq	r1, {r1, r3, r8, r9, sl}
 284:	09081108 	stmdbeq	r8, {r3, r8, ip}
 288:	110a0711 	tstne	sl, r1, lsl r7
 28c:	05110b06 	ldreq	r0, [r1, #-2822]	; 0xb06
 290:	0d04110c 	stfeqs	f1, [r4, #-48]	; 0xffffffd0
 294:	11010311 	tstne	r1, r1, lsl r3
 298:	01110202 	tsteq	r1, r2, lsl #4
 29c:	04001103 	streq	r1, [r0], #-259	; 0x103

Disassembly of section .debug_pubnames:

00000000 <.debug_pubnames>:
   0:	0000001a 	andeq	r0, r0, sl, lsl r0
   4:	00000002 	andeq	r0, r0, r2
   8:	02b60000 	adcseq	r0, r6, #0
   c:	026a0000 	rsbeq	r0, sl, #0
  10:	74730000 	ldrbtvc	r0, [r3]
  14:	75747261 	ldrbvc	r7, [r4, #-609]!	; 0x261
  18:	00000070 	andeq	r0, r0, r0, ror r0
  1c:	002c0000 	eoreq	r0, ip, r0
  20:	00020000 	andeq	r0, r2, r0
  24:	000002b6 	undefined instruction 0x000002b6
  28:	000000ce 	andeq	r0, r0, lr, asr #1
  2c:	00000067 	andeq	r0, r0, r7, rrx
  30:	75626564 	strbvc	r6, [r2, #-1380]!	; 0x564
  34:	6e695f67 	cdpvs	15, 6, cr5, cr9, cr7, {3}
  38:	7a007469 	bvc	1d1e4 <CONFIG_LOADER_TEXT-0x1fe2e1c>
  3c:	64000000 	strvs	r0, [r0]
  40:	67756265 	ldrbvs	r6, [r5, -r5, ror #4]!
  44:	7475705f 	ldrbtvc	r7, [r5], #-95	; 0x5f
  48:	00000063 	andeq	r0, r0, r3, rrx
  4c:	00310000 	eorseq	r0, r1, r0
  50:	00020000 	andeq	r0, r2, r0
  54:	00000384 	andeq	r0, r0, r4, lsl #7
  58:	000001f1 	strdeq	r0, [r0], -r1
  5c:	00000115 	andeq	r0, r0, r5, lsl r1
  60:	6f6c6572 	svcvs	0x006c6572
  64:	65746163 	ldrbvs	r6, [r4, #-355]!	; 0x163
  68:	6c65725f 	sfmvs	f7, 2, [r5], #-380	; (stclvs 2, cr7, [r5], #-380)	; 0xfffffe84
  6c:	016c0061 	cmneq	ip, r1, rrx
  70:	65720000 	ldrbvs	r0, [r2]!
  74:	61636f6c 	cmnvs	r3, ip, ror #30
  78:	725f6574 	subsvc	r6, pc, #486539264	; 0x1d000000
  7c:	00006c65 	andeq	r6, r0, r5, ror #24
  80:	21000000 	tstcs	r0, r0
  84:	02000000 	andeq	r0, r0, #0
  88:	00057500 	andeq	r7, r5, r0, lsl #10
  8c:	0002fc00 	andeq	pc, r2, r0, lsl #24
  90:	00028400 	andeq	r8, r2, r0, lsl #8
  94:	6e617000 	cdpvs	0, 6, cr7, cr1, cr0, {0}
  98:	a3006369 	movwge	r6, #873	; 0x369
  9c:	6d000002 	stcvs	0, cr0, [r0, #-8]
  a0:	006e6961 	rsbeq	r6, lr, r1, ror #18
  a4:	00000000 	andeq	r0, r0, r0
  a8:	0000002d 	andeq	r0, r0, sp, lsr #32
  ac:	08710002 	ldmdaeq	r1!, {r1}^
  b0:	027d0000 	rsbseq	r0, sp, #0
  b4:	024c0000 	subeq	r0, ip, #0
  b8:	75640000 	strbvc	r0, [r4]!
  bc:	625f706d 	subsvs	r7, pc, #109	; 0x6d
  c0:	69746f6f 	ldmdbvs	r4!, {r0, r1, r2, r3, r5, r6, r8, r9, sl, fp, sp, lr}^
  c4:	006f666e 	rsbeq	r6, pc, lr, ror #12
  c8:	0000025f 	andeq	r0, r0, pc, asr r2
  cc:	746f6f62 	strbtvc	r6, [pc], #3938	; d4 <CONFIG_LOADER_TEXT-0x1ffff2c>
  d0:	6f666e69 	svcvs	0x00666e69
  d4:	00000000 	andeq	r0, r0, r0
  d8:	00004200 	andeq	r4, r0, r0, lsl #4
  dc:	ee000200 	cdp	2, 0, cr0, cr0, cr0, {0}
  e0:	8800000a 	stmdahi	r0, {r1, r3}
  e4:	a2000004 	andge	r0, r0, #4
  e8:	6c000003 	stcvs	0, cr0, [r0], {3}
  ec:	5f64616f 	svcpl	0x0064616f
  f0:	5100736f 	tstpl	r0, pc, ror #6
  f4:	6c000004 	stcvs	0, cr0, [r0], {4}
  f8:	5f64616f 	svcpl	0x0064616f
  fc:	65736162 	ldrbvs	r6, [r3, #-354]!	; 0x162
 100:	00046300 	andeq	r6, r4, r0, lsl #6
 104:	616f6c00 	cmnvs	pc, r0, lsl #24
 108:	74735f64 	ldrbtvc	r5, [r3], #-3940	; 0xf64
 10c:	00747261 	rsbseq	r7, r4, r1, ror #4
 110:	00000475 	andeq	r0, r0, r5, ror r4
 114:	695f726e 	ldmdbvs	pc, {r1, r2, r3, r5, r6, r9, ip, sp, lr}^
 118:	0000676d 	andeq	r6, r0, sp, ror #14
 11c:	1b000000 	blne	124 <CONFIG_LOADER_TEXT-0x1fffedc>
 120:	02000000 	andeq	r0, r0, #0
 124:	000f7600 	andeq	r7, pc, r0, lsl #12
 128:	0008b200 	andeq	fp, r8, r0, lsl #4
 12c:	00068a00 	andeq	r8, r6, r0, lsl #20
 130:	616f6c00 	cmnvs	pc, r0, lsl #24
 134:	6c655f64 	stclvs	15, cr5, [r5], #-400	; 0xfffffe70
 138:	00000066 	andeq	r0, r0, r6, rrx
 13c:	00190000 	andseq	r0, r9, r0
 140:	00020000 	andeq	r0, r2, r0
 144:	00001828 	andeq	r1, r0, r8, lsr #16
 148:	0000007b 	andeq	r0, r0, fp, ror r0
 14c:	00000067 	andeq	r0, r0, r7, rrx
 150:	616c7073 	smcvs	50947	; 0xc703
 154:	00006873 	andeq	r6, r0, r3, ror r8
 158:	45000000 	strmi	r0, [r0]
 15c:	02000000 	andeq	r0, r0, #0
 160:	0018a300 	andseq	sl, r8, r0, lsl #6
 164:	00022900 	andeq	r2, r2, r0, lsl #18
 168:	00007200 	andeq	r7, r0, r0, lsl #4
 16c:	6f746100 	svcvs	0x00746100
 170:	00b7006c 	adcseq	r0, r7, ip, rrx
 174:	74730000 	ldrbtvc	r0, [r3]
 178:	70636c72 	rsbvc	r6, r3, r2, ror ip
 17c:	012b0079 	teqeq	fp, r9, ror r0
 180:	74730000 	ldrbtvc	r0, [r3]
 184:	6d636e72 	stclvs	14, cr6, [r3, #-456]!	; 0xfffffe38
 188:	01810070 	orreq	r0, r1, r0, ror r0
 18c:	656d0000 	strbvs	r0, [sp]!
 190:	7970636d 	ldmdbvc	r0!, {r0, r2, r3, r5, r6, r8, r9, sp, lr}^
 194:	0001e100 	andeq	lr, r1, r0, lsl #2
 198:	6d656d00 	stclvs	13, cr6, [r5]
 19c:	00746573 	rsbseq	r6, r4, r3, ror r5
 1a0:	00000000 	andeq	r0, r0, r0
 1a4:	00000019 	andeq	r0, r0, r9, lsl r0
 1a8:	1acc0002 	bne	ff3001b8 <CONFIG_SYSPAGE_BASE+0xf43001b8>
 1ac:	014d0000 	cmpeq	sp, r0
 1b0:	00670000 	rsbeq	r0, r7, r0
 1b4:	72700000 	rsbsvc	r0, r0, #0
 1b8:	66746e69 	ldrbtvs	r6, [r4], -r9, ror #28
 1bc:	00000000 	andeq	r0, r0, r0
	...

Disassembly of section .debug_aranges:

00000000 <.debug_aranges>:
   0:	0000001c 	andeq	r0, r0, ip, lsl r0
   4:	00000002 	andeq	r0, r0, r2
   8:	00040000 	andeq	r0, r4, r0
   c:	00000000 	andeq	r0, r0, r0
  10:	02000120 	andeq	r0, r0, #8
  14:	00000054 	andeq	r0, r0, r4, asr r0
	...
  20:	0000001c 	andeq	r0, r0, ip, lsl r0
  24:	02b60002 	adcseq	r0, r6, #2
  28:	00040000 	andeq	r0, r4, r0
  2c:	00000000 	andeq	r0, r0, r0
  30:	02000174 	andeq	r0, r0, #29
  34:	00000054 	andeq	r0, r0, r4, asr r0
	...
  40:	0000001c 	andeq	r0, r0, ip, lsl r0
  44:	03840002 	orreq	r0, r4, #2
  48:	00040000 	andeq	r0, r4, r0
  4c:	00000000 	andeq	r0, r0, r0
  50:	020001c8 	andeq	r0, r0, #50	; 0x32
  54:	000000dc 	ldrdeq	r0, [r0], -ip
	...
  60:	0000001c 	andeq	r0, r0, ip, lsl r0
  64:	05750002 	ldrbeq	r0, [r5, #-2]!
  68:	00040000 	andeq	r0, r4, r0
  6c:	00000000 	andeq	r0, r0, r0
  70:	020002a4 	andeq	r0, r0, #1073741834	; 0x4000000a
  74:	00000088 	andeq	r0, r0, r8, lsl #1
	...
  80:	0000001c 	andeq	r0, r0, ip, lsl r0
  84:	08710002 	ldmdaeq	r1!, {r1}^
  88:	00040000 	andeq	r0, r4, r0
  8c:	00000000 	andeq	r0, r0, r0
  90:	0200032c 	andeq	r0, r0, #-1342177280	; 0xb0000000
  94:	00000004 	andeq	r0, r0, r4
	...
  a0:	0000001c 	andeq	r0, r0, ip, lsl r0
  a4:	0aee0002 	beq	ffb800b4 <CONFIG_SYSPAGE_BASE+0xf4b800b4>
  a8:	00040000 	andeq	r0, r4, r0
  ac:	00000000 	andeq	r0, r0, r0
  b0:	02000330 	andeq	r0, r0, #-1073741824	; 0xc0000000
  b4:	00000328 	andeq	r0, r0, r8, lsr #6
	...
  c0:	0000001c 	andeq	r0, r0, ip, lsl r0
  c4:	0f760002 	svceq	0x00760002
  c8:	00040000 	andeq	r0, r4, r0
  cc:	00000000 	andeq	r0, r0, r0
  d0:	02000658 	andeq	r0, r0, #92274688	; 0x5800000
  d4:	000007a4 	andeq	r0, r0, r4, lsr #15
	...
  e0:	0000001c 	andeq	r0, r0, ip, lsl r0
  e4:	18280002 	stmdane	r8!, {r1}
  e8:	00040000 	andeq	r0, r4, r0
  ec:	00000000 	andeq	r0, r0, r0
  f0:	02000dfc 	andeq	r0, r0, #16128	; 0x3f00
  f4:	00000004 	andeq	r0, r0, r4
	...
 100:	0000001c 	andeq	r0, r0, ip, lsl r0
 104:	18a30002 	stmiane	r3!, {r1}
 108:	00040000 	andeq	r0, r4, r0
 10c:	00000000 	andeq	r0, r0, r0
 110:	02000e00 	andeq	r0, r0, #0
 114:	00000138 	andeq	r0, r0, r8, lsr r1
	...
 120:	0000001c 	andeq	r0, r0, ip, lsl r0
 124:	1acc0002 	bne	ff300134 <CONFIG_SYSPAGE_BASE+0xf4300134>
 128:	00040000 	andeq	r0, r4, r0
 12c:	00000000 	andeq	r0, r0, r0
 130:	02000f38 	andeq	r0, r0, #224	; 0xe0
 134:	000001b4 	undefined instruction 0x000001b4
	...

Disassembly of section .debug_str:

00000000 <.debug_str>:
   0:	6e72656b 	cdpvs	5, 7, cr6, cr2, cr11, {3}
   4:	70006c65 	andvc	r6, r0, r5, ror #24
   8:	00737968 	rsbseq	r7, r3, r8, ror #18
   c:	725f726e 	subsvc	r7, pc, #-536870906	; 0xe0000006
  10:	00736d61 	rsbseq	r6, r3, r1, ror #26
  14:	64646170 	strbtvs	r6, [r4], #-368	; 0x170
  18:	00745f72 	rsbseq	r5, r4, r2, ror pc
  1c:	74786574 	ldrbtvc	r6, [r8], #-1396	; 0x574
  20:	78657400 	stmdavc	r5!, {sl, ip, sp, lr}^
  24:	00785f74 	rsbseq	r5, r8, r4, ror pc
  28:	74786574 	ldrbtvc	r6, [r8], #-1396	; 0x574
  2c:	6400795f 	strvs	r7, [r0], #-2399	; 0x95f
  30:	00617461 	rsbeq	r7, r1, r1, ror #8
  34:	69646976 	stmdbvs	r4!, {r1, r2, r4, r5, r6, r8, fp, sp, lr}^
  38:	006f666e 	rsbeq	r6, pc, lr, ror #12
  3c:	69736e75 	ldmdbvs	r3!, {r0, r2, r4, r5, r6, r9, sl, fp, sp, lr}^
  40:	64656e67 	strbtvs	r6, [r5], #-3687	; 0xe67
  44:	61686320 	cmnvs	r8, r0, lsr #6
  48:	61640072 	smcvs	16386	; 0x4002
  4c:	7a736174 	bvc	1cd8624 <CONFIG_LOADER_TEXT-0x3279dc>
  50:	6e6f6c00 	cdpvs	12, 6, cr6, cr15, cr0, {0}
  54:	6e752067 	cdpvs	0, 7, cr2, cr5, cr7, {3}
  58:	6e676973 	mcrvs	9, 3, r6, cr7, cr3, {3}
  5c:	69206465 	stmdbvs	r0!, {r0, r2, r5, r6, sl, sp, lr}
  60:	7300746e 	movwvc	r7, #1134	; 0x46e
  64:	74726f68 	ldrbtvc	r6, [r2], #-3944	; 0xf68
  68:	736e7520 	cmnvc	lr, #134217728	; 0x8000000
  6c:	656e6769 	strbvs	r6, [lr, #-1897]!	; 0x769
  70:	6e692064 	cdpvs	0, 6, cr2, cr9, cr4, {3}
  74:	69700074 	ldmdbvs	r0!, {r2, r4, r5, r6}^
  78:	5f6c6578 	svcpl	0x006c6578
  7c:	69700078 	ldmdbvs	r0!, {r3, r4, r5, r6}^
  80:	5f6c6578 	svcpl	0x006c6578
  84:	69760079 	ldmdbvs	r6!, {r0, r3, r4, r5, r6}^
  88:	006f6564 	rsbeq	r6, pc, r4, ror #10
  8c:	72617473 	rsbvc	r7, r1, #1929379840	; 0x73000000
  90:	00707574 	rsbseq	r7, r0, r4, ror r5
  94:	73737362 	cmnvc	r3, #-2013265919	; 0x88000001
  98:	4e47007a 	mcrmi	0, 2, r0, cr7, cr10, {3}
  9c:	20432055 	subcs	r2, r3, r5, asr r0
  a0:	2e342e34 	mrccs	14, 1, r2, cr4, cr4, {1}
  a4:	6f620032 	svcvs	0x00620032
  a8:	6e69746f 	cdpvs	4, 6, cr7, cr9, cr15, {3}
  ac:	695f6f66 	ldmdbvs	pc, {r1, r2, r5, r6, r8, r9, sl, fp, sp, lr}^
  b0:	0074696e 	rsbseq	r6, r4, lr, ror #18
  b4:	74786574 	ldrbtvc	r6, [r8], #-1396	; 0x574
  b8:	73007a73 	movwvc	r7, #2675	; 0xa73
  bc:	74726f68 	ldrbtvc	r6, [r2], #-3944	; 0xf68
  c0:	746e6920 	strbtvc	r6, [lr], #-2336	; 0x920
  c4:	73552f00 	cmpvc	r5, #0
  c8:	2f737265 	svccs	0x00737265
  cc:	69727963 	ldmdbvs	r2!, {r0, r1, r5, r6, r8, fp, ip, sp, lr}^
  d0:	65442f6c 	strbvs	r2, [r4, #-3948]	; 0xf6c
  d4:	444e2f76 	strbmi	r2, [lr], #-3958	; 0xf76
  d8:	72502f53 	subsvc	r2, r0, #332	; 0x14c
  dc:	63656a6f 	cmnvs	r5, #454656	; 0x6f000
  e0:	502f7374 	eorpl	r7, pc, r4, ror r3
  e4:	30786572 	rsbscc	r6, r8, r2, ror r5
  e8:	5344392e 	movtpl	r3, #18734	; 0x492e
  ec:	7073622f 	rsbsvc	r6, r3, pc, lsr #4
  f0:	6f6f622f 	svcvs	0x006f622f
  f4:	726e0074 	rsbvc	r0, lr, #116	; 0x74
  f8:	7361745f 	cmnvc	r1, #1593835520	; 0x5f000000
  fc:	6c00736b 	stcvs	3, cr7, [r0], {107}	; 0x6b
 100:	20676e6f 	rsbcs	r6, r7, pc, ror #28
 104:	00746e69 	rsbseq	r6, r4, r9, ror #28
 108:	2f6d7261 	svccs	0x006d7261
 10c:	2f73646e 	svccs	0x0073646e
 110:	72617473 	rsbvc	r7, r1, #1929379840	; 0x73000000
 114:	2e707574 	mrccs	5, 3, r7, cr0, cr4, {3}
 118:	73700063 	cmnvc	r0, #99	; 0x63
 11c:	5f657a69 	svcpl	0x00657a69
 120:	68700074 	ldmdavs	r0!, {r2, r4, r5, r6}^
 124:	656d7379 	strbvs	r7, [sp, #-889]!	; 0x379
 128:	7264006d 	rsbvc	r0, r4, #109	; 0x6d
 12c:	72657669 	rsbvc	r7, r5, #110100480	; 0x6900000
 130:	64617600 	strbtvs	r7, [r1], #-1536	; 0x600
 134:	745f7264 	ldrbvc	r7, [pc], #612	; 13c <CONFIG_LOADER_TEXT-0x1fffec4>
 138:	62656400 	rsbvs	r6, r5, #0
 13c:	705f6775 	subsvc	r6, pc, r5, ror r7
 140:	00637475 	rsbeq	r7, r3, r5, ror r4
 144:	75626564 	strbvc	r6, [r2, #-1380]!	; 0x564
 148:	6e695f67 	cdpvs	15, 6, cr5, cr9, cr7, {3}
 14c:	61007469 	tstvs	r0, r9, ror #8
 150:	6e2f6d72 	mcrvs	13, 1, r6, cr15, cr2, {3}
 154:	642f7364 	strtvs	r7, [pc], #868	; 15c <CONFIG_LOADER_TEXT-0x1fffea4>
 158:	67756265 	ldrbvs	r6, [r5, -r5, ror #4]!
 15c:	7400632e 	strvc	r6, [r0], #-814	; 0x32e
 160:	65677261 	strbvs	r7, [r7, #-609]!	; 0x261
 164:	65735f74 	ldrbvs	r5, [r3, #-3956]!	; 0xf74
 168:	6c450063 	mcrrvs	0, 6, r0, r5, cr3
 16c:	5f323366 	svcpl	0x00323366
 170:	64726f57 	ldrbtvs	r6, [r2], #-3927	; 0xf57
 174:	6d797300 	ldclvs	3, cr7, [r9]
 178:	6c61765f 	stclvs	6, cr7, [r1], #-380	; 0xfffffe84
 17c:	72617400 	rsbvc	r7, r1, #0
 180:	5f746567 	svcpl	0x00746567
 184:	74636573 	strbtvc	r6, [r3], #-1395	; 0x573
 188:	666c4500 	strbtvs	r4, [ip], -r0, lsl #10
 18c:	525f3233 	subspl	r3, pc, #805306371	; 0x30000003
 190:	00616c65 	rsbeq	r6, r1, r5, ror #24
 194:	72656877 	rsbvc	r6, r5, #7798784	; 0x770000
 198:	6c450065 	mcrrvs	0, 6, r0, r5, cr5
 19c:	5f323366 	svcpl	0x00323366
 1a0:	726f7753 	rsbvc	r7, pc, #21757952	; 0x14c0000
 1a4:	5f720064 	svcpl	0x00720064
 1a8:	7366666f 	cmnvc	r6, #116391936	; 0x6f00000
 1ac:	72007465 	andvc	r7, r0, #1694498816	; 0x65000000
 1b0:	666e695f 	undefined instruction 0x666e695f
 1b4:	6975006f 	ldmdbvs	r5!, {r0, r1, r2, r3, r5, r6}^
 1b8:	3233746e 	eorscc	r7, r3, #1845493760	; 0x6e000000
 1bc:	7200745f 	andvc	r7, r0, #1593835520	; 0x5f000000
 1c0:	636f6c65 	cmnvs	pc, #25856	; 0x6500
 1c4:	5f657461 	svcpl	0x00657461
 1c8:	616c6572 	smcvs	50770	; 0xc652
 1cc:	666c4500 	strbtvs	r4, [ip], -r0, lsl #10
 1d0:	525f3233 	subspl	r3, pc, #805306371	; 0x30000003
 1d4:	72006c65 	andvc	r6, r0, #25856	; 0x6500
 1d8:	6464615f 	strbtvs	r6, [r4], #-351	; 0x15f
 1dc:	00646e65 	rsbeq	r6, r4, r5, ror #28
 1e0:	6f6c6572 	svcvs	0x006c6572
 1e4:	65746163 	ldrbvs	r6, [r4, #-355]!	; 0x163
 1e8:	6c65725f 	sfmvs	f7, 2, [r5], #-380	; (stclvs 2, cr7, [r5], #-380)	; 0xfffffe84
 1ec:	6d726100 	ldfvse	f6, [r2]
 1f0:	6372612f 	cmnvs	r2, #-1073741813	; 0xc000000b
 1f4:	6c652f68 	stclvs	15, cr2, [r5], #-416	; 0xfffffe60
 1f8:	65725f66 	ldrbvs	r5, [r2, #-3942]!	; 0xf66
 1fc:	2e636f6c 	cdpcs	15, 6, cr6, cr3, cr12, {3}
 200:	6c450063 	mcrrvs	0, 6, r0, r5, cr3
 204:	5f323366 	svcpl	0x00323366
 208:	72646441 	rsbvc	r6, r4, #1090519040	; 0x41000000
 20c:	6e617000 	cdpvs	0, 6, cr7, cr1, cr0, {0}
 210:	63006369 	movwvs	r6, #873	; 0x369
 214:	6f6d6d6f 	svcvs	0x006d6d6f
 218:	616d2f6e 	cmnvs	sp, lr, ror #30
 21c:	632e6e69 	teqvs	lr, #1680	; 0x690
 220:	746e6500 	strbtvc	r6, [lr], #-1280	; 0x500
 224:	745f7972 	ldrbvc	r7, [pc], #2418	; 22c <CONFIG_LOADER_TEXT-0x1fffdd4>
 228:	69616d00 	stmdbvs	r1!, {r8, sl, fp, sp, lr}^
 22c:	7564006e 	strbvc	r0, [r4, #-110]!	; 0x6e
 230:	625f706d 	subsvs	r7, pc, #109	; 0x6d
 234:	69746f6f 	ldmdbvs	r4!, {r0, r1, r2, r3, r5, r6, r8, r9, sl, fp, sp, lr}^
 238:	006f666e 	rsbeq	r6, pc, lr, ror #12
 23c:	6d6d6f63 	stclvs	15, cr6, [sp, #-396]!	; 0xfffffe74
 240:	622f6e6f 	eorvs	r6, pc, #1776	; 0x6f0
 244:	69746f6f 	ldmdbvs	r4!, {r0, r1, r2, r3, r5, r6, r8, r9, sl, fp, sp, lr}^
 248:	2e6f666e 	cdpcs	6, 6, cr6, cr15, cr14, {3}
 24c:	72610063 	rsbvc	r0, r1, #99	; 0x63
 250:	646f6d5f 	strbtvs	r6, [pc], #3423	; 258 <CONFIG_LOADER_TEXT-0x1fffda8>
 254:	6f630065 	svcvs	0x00630065
 258:	6e6f6d6d 	cdpvs	13, 6, cr6, cr15, cr13, {3}
 25c:	616f6c2f 	cmnvs	pc, pc, lsr #24
 260:	00632e64 	rsbeq	r2, r3, r4, ror #28
 264:	645f7261 	ldrbvs	r7, [pc], #609	; 26c <CONFIG_LOADER_TEXT-0x1fffd94>
 268:	00657461 	rsbeq	r7, r5, r1, ror #8
 26c:	6967616d 	stmdbvs	r7!, {r0, r2, r3, r5, r6, r8, sp, lr}^
 270:	72610063 	rsbvc	r0, r1, #99	; 0x63
 274:	616d665f 	cmnvs	sp, pc, asr r6
 278:	72610067 	rsbvc	r0, r1, #103	; 0x67
 27c:	6469755f 	strbtvs	r7, [r9], #-1375	; 0x55f
 280:	74657300 	strbtvc	r7, [r5], #-768	; 0x300
 284:	625f7075 	subsvs	r7, pc, #117	; 0x75
 288:	64746f6f 	ldrbtvs	r6, [r4], #-3951	; 0xf6f
 28c:	006b7369 	rsbeq	r7, fp, r9, ror #6
 290:	64616f6c 	strbtvs	r6, [r1], #-3948	; 0xf6c
 294:	646f6d5f 	strbtvs	r6, [pc], #3423	; 29c <CONFIG_LOADER_TEXT-0x1fffd64>
 298:	00656c75 	rsbeq	r6, r5, r5, ror ip
 29c:	685f7261 	ldmdavs	pc, {r0, r5, r6, r9, ip, sp, lr}^
 2a0:	6e007264 	cdpvs	2, 0, cr7, cr0, cr4, {3}
 2a4:	6d695f72 	stclvs	15, cr5, [r9, #-456]!	; 0xfffffe38
 2a8:	72610067 	rsbvc	r0, r1, #103	; 0x67
 2ac:	6469675f 	strbtvs	r6, [r9], #-1887	; 0x75f
 2b0:	5f726100 	svcpl	0x00726100
 2b4:	656d616e 	strbvs	r6, [sp, #-366]!	; 0x16e
 2b8:	5f726100 	svcpl	0x00726100
 2bc:	657a6973 	ldrbvs	r6, [sl, #-2419]!	; 0x973
 2c0:	616f6c00 	cmnvs	pc, r0, lsl #24
 2c4:	61625f64 	cmnvs	r2, r4, ror #30
 2c8:	6c006573 	cfstr32vs	mvfx6, [r0], {115}	; 0x73
 2cc:	5f64616f 	svcpl	0x0064616f
 2d0:	6c00736f 	stcvs	3, cr7, [r0], {111}	; 0x6f
 2d4:	5f64616f 	svcpl	0x0064616f
 2d8:	72617473 	rsbvc	r7, r1, #1929379840	; 0x73000000
 2dc:	5f650074 	svcpl	0x00650074
 2e0:	74736873 	ldrbtvc	r6, [r3], #-2163	; 0x873
 2e4:	78646e72 	stmdavc	r4!, {r1, r4, r5, r6, r9, sl, fp, sp, lr}^
 2e8:	72747300 	rsbsvc	r7, r4, #0
 2ec:	646e6873 	strbtvs	r6, [lr], #-2163	; 0x873
 2f0:	6c650078 	stclvs	0, cr0, [r5], #-480	; 0xfffffe20
 2f4:	72646866 	rsbvc	r6, r4, #6684672	; 0x660000
 2f8:	6d797300 	ldclvs	3, cr7, [r9]
 2fc:	00626174 	rsbeq	r6, r2, r4, ror r1
 300:	6e655f65 	cdpvs	15, 6, cr5, cr5, cr5, {3}
 304:	00797274 	rsbseq	r7, r9, r4, ror r2
 308:	72646873 	rsbvc	r6, r4, #7536640	; 0x730000
 30c:	705f7000 	subsvc	r7, pc, r0
 310:	72646461 	rsbvc	r6, r4, #1627389952	; 0x61000000
 314:	665f6500 	ldrbvs	r6, [pc], -r0, lsl #10
 318:	7367616c 	cmnvc	r7, #27
 31c:	6d5f6500 	cfldr64vs	mvdx6, [pc]
 320:	69686361 	stmdbvs	r8!, {r0, r5, r6, r8, r9, sp, lr}^
 324:	4500656e 	strmi	r6, [r0, #-1390]	; 0x56e
 328:	3233666c 	eorscc	r6, r3, #113246208	; 0x6c00000
 32c:	6468535f 	strbtvs	r5, [r8], #-863	; 0x35f
 330:	5f650072 	svcpl	0x00650072
 334:	6e656870 	mcrvs	8, 3, r6, cr5, cr0, {3}
 338:	7a697374 	bvc	1a5d110 <CONFIG_LOADER_TEXT-0x5a2ef0>
 33c:	68730065 	ldmdavs	r3!, {r0, r2, r5, r6}^
 340:	666e695f 	undefined instruction 0x666e695f
 344:	7473006f 	ldrbtvc	r0, [r3], #-111	; 0x6f
 348:	62617472 	rsbvs	r7, r1, #1912602624	; 0x72000000
 34c:	5f747300 	svcpl	0x00747300
 350:	656d616e 	strbvs	r6, [sp, #-366]!	; 0x16e
 354:	666c4500 	strbtvs	r4, [ip], -r0, lsl #10
 358:	485f3233 	ldmdami	pc, {r0, r1, r4, r5, r9, ip, sp}^
 35c:	00666c61 	rsbeq	r6, r6, r1, ror #24
 360:	5f6d7973 	svcpl	0x006d7973
 364:	6c626174 	stfvse	f6, [r2], #-464	; 0xfffffe30
 368:	68730065 	ldmdavs	r3!, {r0, r2, r5, r6}^
 36c:	746e655f 	strbtvc	r6, [lr], #-1375	; 0x55f
 370:	657a6973 	ldrbvs	r6, [sl, #-2419]!	; 0x973
 374:	5f687300 	svcpl	0x00687300
 378:	72646461 	rsbvc	r6, r4, #1627389952	; 0x61000000
 37c:	765f7000 	ldrbvc	r7, [pc], -r0
 380:	72646461 	rsbvc	r6, r4, #1627389952	; 0x61000000
 384:	745f7000 	ldrbvc	r7, [pc], #0	; 38c <CONFIG_LOADER_TEXT-0x1fffc74>
 388:	00657079 	rsbeq	r7, r5, r9, ror r0
 38c:	656d5f70 	strbvs	r5, [sp, #-3952]!	; 0xf70
 390:	007a736d 	rsbseq	r7, sl, sp, ror #6
 394:	68735f65 	ldmdavs	r3!, {r0, r2, r5, r6, r8, r9, sl, fp, ip, lr}^
 398:	73746e65 	cmnvc	r4, #1616	; 0x650
 39c:	00657a69 	rsbeq	r7, r5, r9, ror #20
 3a0:	6f6c6572 	svcvs	0x006c6572
 3a4:	65746163 	ldrbvs	r6, [r4, #-355]!	; 0x163
 3a8:	6365735f 	cmnvs	r5, #2080374785	; 0x7c000001
 3ac:	6e6f6974 	mcrvs	9, 3, r6, cr15, cr4, {3}
 3b0:	6c65725f 	sfmvs	f7, 2, [r5], #-380	; (stclvs 2, cr7, [r5], #-380)	; 0xfffffe84
 3b4:	6c657200 	sfmvs	f7, 2, [r5]	; (stclvs 2, cr7, [r5])
 3b8:	7461636f 	strbtvc	r6, [r1], #-879	; 0x36f
 3bc:	65735f65 	ldrbvs	r5, [r3, #-3941]!	; 0xf65
 3c0:	6f697463 	svcvs	0x00697463
 3c4:	5f65006e 	svcpl	0x0065006e
 3c8:	65707974 	ldrbvs	r7, [r0, #-2420]!	; 0x974
 3cc:	73736200 	cmnvc	r3, #0
 3d0:	7361625f 	cmnvc	r1, #-268435451	; 0xf0000005
 3d4:	5f650065 	svcpl	0x00650065
 3d8:	69736865 	ldmdbvs	r3!, {r0, r2, r5, r6, fp, sp, lr}^
 3dc:	4500657a 	strmi	r6, [r0, #-1402]	; 0x57a
 3e0:	3233666c 	eorscc	r6, r3, #113246208	; 0x6c00000
 3e4:	66664f5f 	uqsubaddxvs	r4, r6, pc
 3e8:	5f687300 	svcpl	0x00687300
 3ec:	65707974 	ldrbvs	r7, [r0, #-2420]!	; 0x974
 3f0:	666c4500 	strbtvs	r4, [ip], -r0, lsl #10
 3f4:	505f3233 	subspl	r3, pc, r3, lsr r2
 3f8:	00726468 	rsbseq	r6, r2, r8, ror #8
 3fc:	64616f6c 	strbtvs	r6, [r1], #-3948	; 0xf6c
 400:	6578655f 	ldrbvs	r6, [r8, #-1375]!	; 0x55f
 404:	61747563 	cmnvs	r4, r3, ror #10
 408:	00656c62 	rsbeq	r6, r5, r2, ror #24
 40c:	74636573 	strbtvc	r6, [r3], #-1395	; 0x573
 410:	6464615f 	strbtvs	r6, [r4], #-351	; 0x15f
 414:	5f650072 	svcpl	0x00650072
 418:	73726576 	cmnvc	r2, #494927872	; 0x1d800000
 41c:	006e6f69 	rsbeq	r6, lr, r9, ror #30
 420:	6d6d6f63 	stclvs	15, cr6, [sp, #-396]!	; 0xfffffe74
 424:	652f6e6f 	strvs	r6, [pc, #-3695]!	; fffff5bd <CONFIG_SYSPAGE_BASE+0xf4fff5bd>
 428:	632e666c 	teqvs	lr, #113246208	; 0x6c00000
 42c:	666c6500 	strbtvs	r6, [ip], -r0, lsl #10
 430:	735f3233 	cmpvc	pc, #805306371	; 0x30000003
 434:	73006d79 	movwvc	r6, #3449	; 0xd79
 438:	64615f68 	strbtvs	r5, [r1], #-3944	; 0xf68
 43c:	6c617264 	sfmvs	f7, 2, [r1], #-400	; (stclvs 2, cr7, [r1], #-400)	; 0xfffffe70
 440:	006e6769 	rsbeq	r6, lr, r9, ror #14
 444:	665f6873 	undefined instruction 0x665f6873
 448:	7367616c 	cmnvc	r7, #27
 44c:	666c4500 	strbtvs	r4, [ip], -r0, lsl #10
 450:	455f3233 	ldrbmi	r3, [pc, #-563]	; 225 <CONFIG_LOADER_TEXT-0x1fffddb>
 454:	00726468 	rsbseq	r6, r2, r8, ror #8
 458:	64695f65 	strbtvs	r5, [r9], #-3941	; 0xf65
 45c:	00746e65 	rsbseq	r6, r4, r5, ror #28
 460:	72646865 	rsbvc	r6, r4, #6619136	; 0x650000
 464:	6e697500 	cdpvs	5, 6, cr7, cr9, cr0, {0}
 468:	5f363174 	svcpl	0x00363174
 46c:	74730074 	ldrbtvc	r0, [r3], #-116	; 0x74
 470:	68746f5f 	ldmdavs	r4!, {r0, r1, r2, r3, r4, r6, r8, r9, sl, fp, sp, lr}^
 474:	73007265 	movwvc	r7, #613	; 0x265
 478:	6e695f74 	mcrvs	15, 3, r5, cr9, cr4, {3}
 47c:	73006f66 	movwvc	r6, #3942	; 0xf66
 480:	666f5f68 	strbtvs	r5, [pc], -r8, ror #30
 484:	74657366 	strbtvc	r7, [r5], #-870	; 0x366
 488:	665f7000 	ldrbvs	r7, [pc], -r0
 48c:	7367616c 	cmnvc	r7, #27
 490:	5f687300 	svcpl	0x00687300
 494:	657a6973 	ldrbvs	r6, [sl, #-2419]!	; 0x973
 498:	79687000 	stmdbvc	r8!, {ip, sp, lr}^
 49c:	61625f73 	smcvs	9715	; 0x25f3
 4a0:	65006573 	strvs	r6, [r0, #-1395]	; 0x573
 4a4:	6f68705f 	svcvs	0x0068705f
 4a8:	73006666 	movwvc	r6, #1638	; 0x666
 4ac:	696c5f68 	stmdbvs	ip!, {r3, r5, r6, r8, r9, sl, fp, ip, lr}^
 4b0:	73006b6e 	movwvc	r6, #2926	; 0xb6e
 4b4:	68735f74 	ldmdavs	r3!, {r2, r4, r5, r6, r8, r9, sl, fp, ip, lr}^
 4b8:	0078646e 	rsbseq	r6, r8, lr, ror #8
 4bc:	68735f65 	ldmdavs	r3!, {r0, r2, r5, r6, r8, r9, sl, fp, ip, lr}^
 4c0:	0066666f 	rsbeq	r6, r6, pc, ror #12
 4c4:	735f7473 	cmpvc	pc, #1929379840	; 0x73000000
 4c8:	00657a69 	rsbeq	r7, r5, r9, ror #20
 4cc:	666f5f70 	uqsub16vs	r5, pc, r0
 4d0:	74657366 	strbtvc	r7, [r5], #-870	; 0x366
 4d4:	616f6c00 	cmnvs	pc, r0, lsl #24
 4d8:	65725f64 	ldrbvs	r5, [r2, #-3940]!	; 0xf64
 4dc:	61636f6c 	cmnvs	r3, ip, ror #30
 4e0:	6c626174 	stfvse	f6, [r2], #-464	; 0xfffffe30
 4e4:	68730065 	ldmdavs	r3!, {r0, r2, r5, r6}^
 4e8:	6d616e5f 	stclvs	14, cr6, [r1, #-380]!	; 0xfffffe84
 4ec:	68700065 	ldmdavs	r0!, {r0, r2, r5, r6}^
 4f0:	73007264 	movwvc	r7, #612	; 0x264
 4f4:	61765f74 	cmnvs	r6, r4, ror pc
 4f8:	0065756c 	rsbeq	r7, r5, ip, ror #10
 4fc:	69665f70 	stmdbvs	r6!, {r4, r5, r6, r8, r9, sl, fp, ip, lr}^
 500:	7a73656c 	bvc	1cd9ab8 <CONFIG_LOADER_TEXT-0x326548>
 504:	705f6500 	subsvc	r6, pc, r0, lsl #10
 508:	6d756e68 	ldclvs	14, cr6, [r5, #-416]!	; 0xfffffe60
 50c:	5f726e00 	svcpl	0x00726e00
 510:	6f6c6572 	svcvs	0x006c6572
 514:	5f650063 	svcpl	0x00650063
 518:	756e6873 	strbvc	r6, [lr, #-2163]!	; 0x873
 51c:	6572006d 	ldrbvs	r0, [r2, #-109]!	; 0x6d
 520:	61636f6c 	cmnvs	r3, ip, ror #30
 524:	735f6574 	cmpvc	pc, #486539264	; 0x1d000000
 528:	69746365 	ldmdbvs	r4!, {r0, r2, r5, r6, r8, r9, sp, lr}^
 52c:	725f6e6f 	subsvc	r6, pc, #1776	; 0x6f0
 530:	00616c65 	rsbeq	r6, r1, r5, ror #24
 534:	6f727265 	svcvs	0x00727265
 538:	6f6c0072 	svcvs	0x006c0072
 53c:	655f6461 	ldrbvs	r6, [pc, #-1121]	; e3 <CONFIG_LOADER_TEXT-0x1ffff1d>
 540:	7000666c 	andvc	r6, r0, ip, ror #12
 544:	696c615f 	stmdbvs	ip!, {r0, r1, r2, r3, r4, r6, r8, sp, lr}^
 548:	73006e67 	movwvc	r6, #3687	; 0xe67
 54c:	5f746365 	svcpl	0x00746365
 550:	65736162 	ldrbvs	r6, [r3, #-354]!	; 0x162
 554:	666c4500 	strbtvs	r4, [ip], -r0, lsl #10
 558:	535f3233 	cmppl	pc, #805306371	; 0x30000003
 55c:	63006d79 	movwvs	r6, #3449	; 0xd79
 560:	6f6d6d6f 	svcvs	0x006d6d6f
 564:	70732f6e 	rsbsvc	r2, r3, lr, ror #30
 568:	6873616c 	ldmdavs	r3!, {r2, r3, r5, r6, r8, sp, lr}^
 56c:	7300632e 	movwvc	r6, #814	; 0x32e
 570:	73616c70 	cmnvc	r1, #28672	; 0x7000
 574:	656d0068 	strbvs	r0, [sp, #-104]!	; 0x68
 578:	7465736d 	strbtvc	r7, [r5], #-877	; 0x36d
 57c:	73656400 	cmnvc	r5, #0
 580:	74610074 	strbtvc	r0, [r1], #-116	; 0x74
 584:	63006c6f 	movwvs	r6, #3183	; 0xc6f
 588:	6f6d6d6f 	svcvs	0x006d6d6f
 58c:	74732f6e 	ldrbtvc	r2, [r3], #-3950	; 0xf6e
 590:	676e6972 	undefined instruction 0x676e6972
 594:	6d00632e 	stcvs	3, cr6, [r0, #-184]	; 0xffffff48
 598:	70636d65 	rsbvc	r6, r3, r5, ror #26
 59c:	74730079 	ldrbtvc	r0, [r3], #-121	; 0x79
 5a0:	6d636e72 	stclvs	14, cr6, [r3, #-456]!	; 0xfffffe38
 5a4:	6f630070 	svcvs	0x00630070
 5a8:	00746e75 	rsbseq	r6, r4, r5, ror lr
 5ac:	6c727473 	cfldrdvs	mvd7, [r2], #-460	; 0xfffffe34
 5b0:	00797063 	rsbseq	r7, r9, r3, rrx
 5b4:	69676964 	stmdbvs	r7!, {r2, r5, r6, r8, fp, sp, lr}^
 5b8:	63007374 	movwvs	r7, #884	; 0x374
 5bc:	6f6d6d6f 	svcvs	0x006d6d6f
 5c0:	72702f6e 	rsbsvc	r2, r0, #440	; 0x1b8
 5c4:	66746e69 	ldrbtvs	r6, [r4], -r9, ror #28
 5c8:	5f00632e 	svcpl	0x0000632e
 5cc:	0070615f 	rsbseq	r6, r0, pc, asr r1
 5d0:	61765f5f 	cmnvs	r6, pc, asr pc
 5d4:	73696c5f 	cmnvc	r9, #24320	; 0x5f00
 5d8:	72700074 	rsbsvc	r0, r0, #116	; 0x74
 5dc:	66746e69 	ldrbtvs	r6, [r4], -r9, ror #28
	...

Disassembly of section .debug_loc:

00000000 <.debug_loc>:
   0:	00000004 	andeq	r0, r0, r4
   4:	00000008 	andeq	r0, r0, r8
   8:	085d0001 	ldmdaeq	sp, {r0}^
   c:	54000000 	strpl	r0, [r0]
  10:	02000000 	andeq	r0, r0, #0
  14:	00107d00 	andseq	r7, r0, r0, lsl #26
  18:	00000000 	andeq	r0, r0, r0
  1c:	04000000 	streq	r0, [r0]
  20:	40000000 	andmi	r0, r0, r0
  24:	01000000 	tsteq	r0, r0
  28:	00005000 	andeq	r5, r0, r0
	...
  34:	00040000 	andeq	r0, r4, r0
  38:	00010000 	andeq	r0, r1, r0
  3c:	0000045d 	andeq	r0, r0, sp, asr r4
  40:	00001800 	andeq	r1, r0, r0, lsl #16
  44:	7d000200 	sfmvc	f0, 4, [r0]	; (stcvc 2, cr0, [r0])
  48:	00000008 	andeq	r0, r0, r8
	...
  54:	00000800 	andeq	r0, r0, r0, lsl #16
  58:	50000100 	andpl	r0, r0, r0, lsl #2
	...
  68:	0000000c 	andeq	r0, r0, ip
  6c:	00510001 	subseq	r0, r1, r1
	...
  78:	0c000000 	stceq	0, cr0, [r0], {0}
  7c:	01000000 	tsteq	r0, r0
  80:	00005200 	andeq	r5, r0, r0, lsl #4
  84:	00000000 	andeq	r0, r0, r0
  88:	00180000 	andseq	r0, r8, r0
  8c:	001c0000 	andseq	r0, ip, r0
  90:	00010000 	andeq	r0, r1, r0
  94:	00001c5d 	andeq	r1, r0, sp, asr ip
  98:	0000dc00 	andeq	sp, r0, r0, lsl #24
  9c:	7d000200 	sfmvc	f0, 4, [r0]	; (stcvc 2, cr0, [r0])
  a0:	00000008 	andeq	r0, r0, r8
  a4:	00000000 	andeq	r0, r0, r0
  a8:	00001800 	andeq	r1, r0, r0, lsl #16
  ac:	00002400 	andeq	r2, r0, r0, lsl #8
  b0:	50000100 	andpl	r0, r0, r0, lsl #2
	...
  bc:	00000018 	andeq	r0, r0, r8, lsl r0
  c0:	00000034 	andeq	r0, r0, r4, lsr r0
  c4:	34510001 	ldrbcc	r0, [r1], #-1
  c8:	6c000000 	stcvs	0, cr0, [r0], {0}
  cc:	01000000 	tsteq	r0, r0
  d0:	00785200 	rsbseq	r5, r8, r0, lsl #4
  d4:	00800000 	addeq	r0, r0, r0
  d8:	00010000 	andeq	r0, r1, r0
  dc:	0000b052 	andeq	fp, r0, r2, asr r0
  e0:	0000bc00 	andeq	fp, r0, r0, lsl #24
  e4:	52000100 	andpl	r0, r0, #0
	...
  f0:	00000018 	andeq	r0, r0, r8, lsl r0
  f4:	00000030 	andeq	r0, r0, r0, lsr r0
  f8:	30520001 	subscc	r0, r2, r1
  fc:	a8000000 	stmdage	r0, {}
 100:	01000000 	tsteq	r0, r0
 104:	00b05c00 	adcseq	r5, r0, r0, lsl #24
 108:	00bc0000 	adcseq	r0, ip, r0
 10c:	00010000 	andeq	r0, r1, r0
 110:	0000005c 	andeq	r0, r0, ip, asr r0
 114:	00000000 	andeq	r0, r0, r0
 118:	00003400 	andeq	r3, r0, r0, lsl #8
 11c:	0000a800 	andeq	sl, r0, r0, lsl #16
 120:	51000100 	tstpl	r0, r0, lsl #2
 124:	000000b0 	strheq	r0, [r0], -r0
 128:	000000b4 	strheq	r0, [r0], -r4
 12c:	00510001 	subseq	r0, r1, r1
 130:	00000000 	andeq	r0, r0, r0
 134:	90000000 	andls	r0, r0, r0
 138:	94000000 	strls	r0, [r0]
 13c:	01000000 	tsteq	r0, r0
 140:	00005200 	andeq	r5, r0, r0, lsl #4
 144:	00000000 	andeq	r0, r0, r0
 148:	00840000 	addeq	r0, r4, r0
 14c:	00a80000 	adceq	r0, r8, r0
 150:	00010000 	andeq	r0, r1, r0
 154:	0000005e 	andeq	r0, r0, lr, asr r0
	...
 160:	00000800 	andeq	r0, r0, r0, lsl #16
 164:	5d000100 	stfpls	f0, [r0]
 168:	00000008 	andeq	r0, r0, r8
 16c:	00000018 	andeq	r0, r0, r8, lsl r0
 170:	087d0002 	ldmdaeq	sp!, {r1}^
	...
 180:	0000000c 	andeq	r0, r0, ip
 184:	0c500001 	mrrceq	0, 0, r0, r0, cr1
 188:	10000000 	andne	r0, r0, r0
 18c:	01000000 	tsteq	r0, r0
 190:	00005100 	andeq	r5, r0, r0, lsl #2
 194:	00000000 	andeq	r0, r0, r0
 198:	00180000 	andseq	r0, r8, r0
 19c:	00200000 	eoreq	r0, r0, r0
 1a0:	00010000 	andeq	r0, r1, r0
 1a4:	0000205d 	andeq	r2, r0, sp, asr r0
 1a8:	00008800 	andeq	r8, r0, r0, lsl #16
 1ac:	7d000200 	sfmvc	f0, 4, [r0]	; (stcvc 2, cr0, [r0])
 1b0:	00000008 	andeq	r0, r0, r8
	...
 1bc:	00000400 	andeq	r0, r0, r0, lsl #8
 1c0:	5d000100 	stfpls	f0, [r0]
 1c4:	00000004 	andeq	r0, r0, r4
 1c8:	000000b8 	strheq	r0, [r0], -r8
 1cc:	107d0002 	rsbsne	r0, sp, r2
	...
 1dc:	00000014 	andeq	r0, r0, r4, lsl r0
 1e0:	14500001 	ldrbne	r0, [r0], #-1
 1e4:	b8000000 	stmdalt	r0, {}
 1e8:	01000000 	tsteq	r0, r0
 1ec:	00005500 	andeq	r5, r0, r0, lsl #10
	...
 1f8:	00180000 	andseq	r0, r8, r0
 1fc:	00010000 	andeq	r0, r1, r0
 200:	00001851 	andeq	r1, r0, r1, asr r8
 204:	0000b800 	andeq	fp, r0, r0, lsl #16
 208:	54000100 	strpl	r0, [r0], #-256	; 0x100
	...
 214:	0000004c 	andeq	r0, r0, ip, asr #32
 218:	00000080 	andeq	r0, r0, r0, lsl #1
 21c:	00530001 	subseq	r0, r3, r1
 220:	00000000 	andeq	r0, r0, r0
 224:	b8000000 	stmdalt	r0, {}
 228:	c0000000 	andgt	r0, r0, r0
 22c:	01000000 	tsteq	r0, r0
 230:	00c05d00 	sbceq	r5, r0, r0, lsl #26
 234:	03280000 	teqeq	r8, #0
 238:	00020000 	andeq	r0, r2, r0
 23c:	0000287d 	andeq	r2, r0, sp, ror r8
 240:	00000000 	andeq	r0, r0, r0
 244:	014c0000 	cmpeq	ip, r0
 248:	01a80000 	undefined instruction 0x01a80000
 24c:	00010000 	andeq	r0, r1, r0
 250:	0001ac54 	andeq	sl, r1, r4, asr ip
 254:	00032800 	andeq	r2, r3, r0, lsl #16
 258:	54000100 	strpl	r0, [r0], #-256	; 0x100
	...
 264:	00000178 	andeq	r0, r0, r8, ror r1
 268:	0000029c 	muleq	r0, ip, r2
 26c:	9c570001 	mrrcls	0, 0, r0, r7, cr1
 270:	a4000002 	strge	r0, [r0], #-2
 274:	01000002 	tsteq	r0, r2
 278:	00005300 	andeq	r5, r0, r0, lsl #6
 27c:	00000000 	andeq	r0, r0, r0
 280:	01280000 	teqeq	r8, r0
 284:	013c0000 	teqeq	ip, r0
 288:	00010000 	andeq	r0, r1, r0
 28c:	00013c50 	andeq	r3, r1, r0, asr ip
 290:	0001a000 	andeq	sl, r1, r0
 294:	55000100 	strpl	r0, [r0, #-256]	; 0x100
 298:	000001a0 	andeq	r0, r0, r0, lsr #3
 29c:	000001c0 	andeq	r0, r0, r0, asr #3
 2a0:	84530001 	ldrbhi	r0, [r3], #-1
 2a4:	98000002 	stmdals	r0, {r1}
 2a8:	01000002 	tsteq	r0, r2
 2ac:	02985300 	addseq	r5, r8, #0
 2b0:	029c0000 	addseq	r0, ip, #0
 2b4:	00010000 	andeq	r0, r1, r0
 2b8:	00000053 	andeq	r0, r0, r3, asr r0
 2bc:	00000000 	andeq	r0, r0, r0
 2c0:	00018000 	andeq	r8, r1, r0
 2c4:	0001b000 	andeq	fp, r1, r0
 2c8:	55000100 	strpl	r0, [r0, #-256]	; 0x100
 2cc:	000001f0 	strdeq	r0, [r0], -r0
 2d0:	00000268 	andeq	r0, r0, r8, ror #4
 2d4:	84550001 	ldrbhi	r0, [r5], #-1
 2d8:	28000002 	stmdacs	r0, {r1}
 2dc:	01000003 	tsteq	r0, r3
 2e0:	00005500 	andeq	r5, r0, r0, lsl #10
 2e4:	00000000 	andeq	r0, r0, r0
 2e8:	02280000 	eoreq	r0, r8, #0
 2ec:	02640000 	rsbeq	r0, r4, #0
 2f0:	00010000 	andeq	r0, r1, r0
 2f4:	00000051 	andeq	r0, r0, r1, asr r0
 2f8:	00000000 	andeq	r0, r0, r0
 2fc:	00021000 	andeq	r1, r2, r0
 300:	00021c00 	andeq	r1, r2, r0, lsl #24
 304:	52000100 	andpl	r0, r0, #0
 308:	00000220 	andeq	r0, r0, r0, lsr #4
 30c:	00000264 	andeq	r0, r0, r4, ror #4
 310:	00520001 	subseq	r0, r2, r1
	...
 31c:	04000000 	streq	r0, [r0]
 320:	01000000 	tsteq	r0, r0
 324:	00045d00 	andeq	r5, r4, r0, lsl #26
 328:	000c0000 	andeq	r0, ip, r0
 32c:	00020000 	andeq	r0, r2, r0
 330:	000c247d 	andeq	r2, ip, sp, ror r4
 334:	07a40000 	streq	r0, [r4, r0]!
 338:	00020000 	andeq	r0, r2, r0
 33c:	0000387d 	andeq	r3, r0, sp, ror r8
	...
 348:	00100000 	andseq	r0, r0, r0
 34c:	00010000 	andeq	r0, r1, r0
 350:	00001050 	andeq	r1, r0, r0, asr r0
 354:	00028000 	andeq	r8, r2, r0
 358:	55000100 	strpl	r0, [r0, #-256]	; 0x100
 35c:	00000280 	andeq	r0, r0, r0, lsl #5
 360:	000004a0 	andeq	r0, r0, r0, lsr #9
 364:	a05a0001 	subsge	r0, sl, r1
 368:	a4000004 	strge	r0, [r0], #-4
 36c:	01000007 	tsteq	r0, r7
 370:	00005500 	andeq	r5, r0, r0, lsl #10
	...
 37c:	00180000 	andseq	r0, r8, r0
 380:	00010000 	andeq	r0, r1, r0
 384:	00001851 	andeq	r1, r0, r1, asr r8
 388:	0004e800 	andeq	lr, r4, r0, lsl #16
 38c:	54000100 	strpl	r0, [r0], #-256	; 0x100
 390:	000005c8 	andeq	r0, r0, r8, asr #11
 394:	000005d8 	ldrdeq	r0, [r0], -r8
 398:	78540001 	ldmdavc	r4, {r0}^
 39c:	8c000006 	stchi	0, cr0, [r0], {6}
 3a0:	01000006 	tsteq	r0, r6
 3a4:	06ac5400 	strteq	r5, [ip], r0, lsl #8
 3a8:	07a40000 	streq	r0, [r4, r0]!
 3ac:	00010000 	andeq	r0, r1, r0
 3b0:	00000054 	andeq	r0, r0, r4, asr r0
 3b4:	00000000 	andeq	r0, r0, r0
 3b8:	0000c400 	andeq	ip, r0, r0, lsl #8
 3bc:	00024000 	andeq	r4, r2, r0
 3c0:	56000100 	strpl	r0, [r0], -r0, lsl #2
 3c4:	000006f0 	strdeq	r0, [r0], -r0
 3c8:	000007a4 	andeq	r0, r0, r4, lsr #15
 3cc:	00560001 	subseq	r0, r6, r1
 3d0:	00000000 	andeq	r0, r0, r0
 3d4:	c0000000 	andgt	r0, r0, r0
 3d8:	f0000000 	undefined instruction 0xf0000000
 3dc:	01000001 	tsteq	r0, r1
 3e0:	00005a00 	andeq	r5, r0, r0, lsl #20
 3e4:	00000000 	andeq	r0, r0, r0
 3e8:	00d00000 	sbcseq	r0, r0, r0
 3ec:	02400000 	subeq	r0, r0, #0
 3f0:	00010000 	andeq	r0, r1, r0
 3f4:	0006f058 	andeq	pc, r6, r8, asr r0
 3f8:	0007a400 	andeq	sl, r7, r0, lsl #8
 3fc:	58000100 	stmdapl	r0, {r8}
	...
 408:	0000026c 	andeq	r0, r0, ip, ror #4
 40c:	00000430 	andeq	r0, r0, r0, lsr r4
 410:	94560001 	ldrbls	r0, [r6], #-1
 414:	e4000004 	str	r0, [r0], #-4
 418:	01000006 	tsteq	r0, r6
 41c:	06e85600 	strbteq	r5, [r8], r0, lsl #12
 420:	07a40000 	streq	r0, [r4, r0]!
 424:	00010000 	andeq	r0, r1, r0
 428:	00000056 	andeq	r0, r0, r6, asr r0
 42c:	00000000 	andeq	r0, r0, r0
 430:	00028000 	andeq	r8, r2, r0
 434:	00031400 	andeq	r1, r3, r0, lsl #8
 438:	55000100 	strpl	r0, [r0, #-256]	; 0x100
 43c:	0000031c 	andeq	r0, r0, ip, lsl r3
 440:	0000048c 	andeq	r0, r0, ip, lsl #9
 444:	00550001 	subseq	r0, r5, r1
 448:	00000000 	andeq	r0, r0, r0
 44c:	74000000 	strvc	r0, [r0]
 450:	fc000002 	stc2	0, cr0, [r0], {2}
 454:	01000004 	tsteq	r0, r4
 458:	06ac5900 	strteq	r5, [ip], r0, lsl #18
 45c:	06e40000 	strbteq	r0, [r4], r0
 460:	00010000 	andeq	r0, r1, r0
 464:	0006e859 	andeq	lr, r6, r9, asr r8
 468:	0007a400 	andeq	sl, r7, r0, lsl #8
 46c:	59000100 	stmdbpl	r0, {r8}
	...
 478:	000004a0 	andeq	r0, r0, r0, lsr #9
 47c:	000005c8 	andeq	r0, r0, r8, asr #11
 480:	d8540001 	ldmdale	r4, {r0}^
 484:	78000005 	stmdavc	r0, {r0, r2}
 488:	01000006 	tsteq	r0, r6
 48c:	068c5400 	streq	r5, [ip], r0, lsl #8
 490:	06b00000 	ldrteq	r0, [r0], r0
 494:	00010000 	andeq	r0, r1, r0
 498:	0006c054 	andeq	ip, r6, r4, asr r0
 49c:	0006e400 	andeq	lr, r6, r0, lsl #8
 4a0:	54000100 	strpl	r0, [r0], #-256	; 0x100
 4a4:	000006f0 	strdeq	r0, [r0], -r0
 4a8:	000007a4 	andeq	r0, r0, r4, lsr #15
 4ac:	00540001 	subseq	r0, r4, r1
 4b0:	00000000 	andeq	r0, r0, r0
 4b4:	a0000000 	andge	r0, r0, r0
 4b8:	e4000004 	str	r0, [r0], #-4
 4bc:	01000006 	tsteq	r0, r6
 4c0:	06e85900 	strbteq	r5, [r8], r0, lsl #18
 4c4:	07a40000 	streq	r0, [r4, r0]!
 4c8:	00010000 	andeq	r0, r1, r0
 4cc:	00000059 	andeq	r0, r0, r9, asr r0
 4d0:	00000000 	andeq	r0, r0, r0
 4d4:	0004a000 	andeq	sl, r4, r0
 4d8:	00053800 	andeq	r3, r5, r0, lsl #16
 4dc:	5a000100 	bpl	8e4 <CONFIG_LOADER_TEXT-0x1fff71c>
 4e0:	00000540 	andeq	r0, r0, r0, asr #10
 4e4:	00000604 	andeq	r0, r0, r4, lsl #12
 4e8:	845a0001 	ldrbhi	r0, [sl], #-1
 4ec:	8c000006 	stchi	0, cr0, [r0], {6}
 4f0:	01000006 	tsteq	r0, r6
 4f4:	06ac5a00 	strteq	r5, [ip], r0, lsl #20
 4f8:	06e40000 	strbteq	r0, [r4], r0
 4fc:	00010000 	andeq	r0, r1, r0
 500:	0006e85a 	andeq	lr, r6, sl, asr r8
 504:	0007a400 	andeq	sl, r7, r0, lsl #8
 508:	5a000100 	bpl	910 <CONFIG_LOADER_TEXT-0x1fff6f0>
	...
 514:	000004a0 	andeq	r0, r0, r0, lsr #9
 518:	00000548 	andeq	r0, r0, r8, asr #10
 51c:	545b0001 	ldrbpl	r0, [fp], #-1
 520:	14000005 	strne	r0, [r0], #-5
 524:	01000006 	tsteq	r0, r6
 528:	06845b00 	streq	r5, [r4], r0, lsl #22
 52c:	068c0000 	streq	r0, [ip], r0
 530:	00010000 	andeq	r0, r1, r0
 534:	0006985b 	andeq	r9, r6, fp, asr r8
 538:	0006e400 	andeq	lr, r6, r0, lsl #8
 53c:	5b000100 	blpl	944 <CONFIG_LOADER_TEXT-0x1fff6bc>
 540:	000006e8 	andeq	r0, r0, r8, ror #13
 544:	000007a4 	andeq	r0, r0, r4, lsr #15
 548:	005b0001 	subseq	r0, fp, r1
 54c:	00000000 	andeq	r0, r0, r0
 550:	a0000000 	andge	r0, r0, r0
 554:	08000004 	stmdaeq	r0, {r2}
 558:	01000006 	tsteq	r0, r6
 55c:	06845800 	streq	r5, [r4], r0, lsl #16
 560:	068c0000 	streq	r0, [ip], r0
 564:	00010000 	andeq	r0, r1, r0
 568:	0006ac58 	andeq	sl, r6, r8, asr ip
 56c:	0006e400 	andeq	lr, r6, r0, lsl #8
 570:	58000100 	stmdapl	r0, {r8}
 574:	000006e8 	andeq	r0, r0, r8, ror #13
 578:	000007a4 	andeq	r0, r0, r4, lsr #15
 57c:	00580001 	subseq	r0, r8, r1
 580:	00000000 	andeq	r0, r0, r0
 584:	a0000000 	andge	r0, r0, r0
 588:	38000004 	stmdacc	r0, {r2}
 58c:	01000005 	tsteq	r0, r5
 590:	06005a00 	streq	r5, [r0], -r0, lsl #20
 594:	06040000 	streq	r0, [r4], -r0
 598:	00010000 	andeq	r0, r1, r0
 59c:	00060c5a 	andeq	r0, r6, sl, asr ip
 5a0:	0006e400 	andeq	lr, r6, r0, lsl #8
 5a4:	5a000100 	bpl	9ac <CONFIG_LOADER_TEXT-0x1fff654>
 5a8:	000006e8 	andeq	r0, r0, r8, ror #13
 5ac:	000007a4 	andeq	r0, r0, r4, lsr #15
 5b0:	005a0001 	subseq	r0, sl, r1
 5b4:	00000000 	andeq	r0, r0, r0
 5b8:	a0000000 	andge	r0, r0, r0
 5bc:	48000004 	stmdami	r0, {r2}
 5c0:	01000005 	tsteq	r0, r5
 5c4:	05ec5b00 	strbeq	r5, [ip, #2816]!	; 0xb00
 5c8:	06140000 	ldreq	r0, [r4], -r0
 5cc:	00010000 	andeq	r0, r1, r0
 5d0:	0006205b 	andeq	r2, r6, fp, asr r0
 5d4:	0006e400 	andeq	lr, r6, r0, lsl #8
 5d8:	5b000100 	blpl	9e0 <CONFIG_LOADER_TEXT-0x1fff620>
 5dc:	000006e8 	andeq	r0, r0, r8, ror #13
 5e0:	000007a4 	andeq	r0, r0, r4, lsr #15
 5e4:	005b0001 	subseq	r0, fp, r1
 5e8:	00000000 	andeq	r0, r0, r0
 5ec:	a0000000 	andge	r0, r0, r0
 5f0:	3c000004 	stccc	0, cr0, [r0], {4}
 5f4:	01000005 	tsteq	r0, r5
 5f8:	06005800 	streq	r5, [r0], -r0, lsl #16
 5fc:	06e40000 	strbteq	r0, [r4], r0
 600:	00010000 	andeq	r0, r1, r0
 604:	0006e858 	andeq	lr, r6, r8, asr r8
 608:	0007a400 	andeq	sl, r7, r0, lsl #8
 60c:	58000100 	stmdapl	r0, {r8}
	...
 61c:	00000004 	andeq	r0, r0, r4
 620:	045d0001 	ldrbeq	r0, [sp], #-1
 624:	4c000000 	stcmi	0, cr0, [r0], {0}
 628:	02000000 	andeq	r0, r0, #0
 62c:	00087d00 	andeq	r7, r8, r0, lsl #26
	...
 638:	0c000000 	stceq	0, cr0, [r0], {0}
 63c:	01000000 	tsteq	r0, r0
 640:	000c5000 	andeq	r5, ip, r0
 644:	004c0000 	subeq	r0, ip, r0
 648:	00010000 	andeq	r0, r1, r0
 64c:	00000052 	andeq	r0, r0, r2, asr r0
 650:	00000000 	andeq	r0, r0, r0
 654:	00004c00 	andeq	r4, r0, r0, lsl #24
 658:	0000a800 	andeq	sl, r0, r0, lsl #16
 65c:	50000100 	andpl	r0, r0, r0, lsl #2
	...
 668:	0000004c 	andeq	r0, r0, ip, asr #32
 66c:	000000a4 	andeq	r0, r0, r4, lsr #1
 670:	00510001 	subseq	r0, r1, r1
 674:	00000000 	andeq	r0, r0, r0
 678:	4c000000 	stcmi	0, cr0, [r0], {0}
 67c:	5c000000 	stcpl	0, cr0, [r0], {0}
 680:	01000000 	tsteq	r0, r0
 684:	00945200 	addseq	r5, r4, r0, lsl #4
 688:	00980000 	addseq	r0, r8, r0
 68c:	00010000 	andeq	r0, r1, r0
 690:	00000052 	andeq	r0, r0, r2, asr r0
 694:	00000000 	andeq	r0, r0, r0
 698:	00006800 	andeq	r6, r0, r0, lsl #16
 69c:	0000a800 	andeq	sl, r0, r0, lsl #16
 6a0:	50000100 	andpl	r0, r0, r0, lsl #2
	...
 6ac:	0000005c 	andeq	r0, r0, ip, asr r0
 6b0:	00000090 	muleq	r0, r0, r0
 6b4:	a0520001 	subsge	r0, r2, r1
 6b8:	ac000000 	stcge	0, cr0, [r0], {0}
 6bc:	01000000 	tsteq	r0, r0
 6c0:	00005200 	andeq	r5, r0, r0, lsl #4
 6c4:	00000000 	andeq	r0, r0, r0
 6c8:	00ac0000 	adceq	r0, ip, r0
 6cc:	00b00000 	adcseq	r0, r0, r0
 6d0:	00010000 	andeq	r0, r1, r0
 6d4:	0000b05d 	andeq	fp, r0, sp, asr r0
 6d8:	0000f400 	andeq	pc, r0, r0, lsl #8
 6dc:	7d000200 	sfmvc	f0, 4, [r0]	; (stcvc 2, cr0, [r0])
 6e0:	00000008 	andeq	r0, r0, r8
 6e4:	00000000 	andeq	r0, r0, r0
 6e8:	0000ac00 	andeq	sl, r0, r0, lsl #24
 6ec:	0000ec00 	andeq	lr, r0, r0, lsl #24
 6f0:	50000100 	andpl	r0, r0, r0, lsl #2
	...
 6fc:	000000b8 	strheq	r0, [r0], -r8
 700:	000000c0 	andeq	r0, r0, r0, asr #1
 704:	cc5c0001 	mrrcgt	0, 0, r0, ip, cr1
 708:	f4000000 	vst4.8	{d0-d3}, [r0], r0
 70c:	01000000 	tsteq	r0, r0
 710:	00005c00 	andeq	r5, r0, r0, lsl #24
	...
 71c:	00040000 	andeq	r0, r4, r0
 720:	00010000 	andeq	r0, r1, r0
 724:	0000045d 	andeq	r0, r0, sp, asr r4
 728:	00000800 	andeq	r0, r0, r0, lsl #16
 72c:	7d000200 	sfmvc	f0, 4, [r0]	; (stcvc 2, cr0, [r0])
 730:	00000810 	andeq	r0, r0, r0, lsl r8
 734:	00000c00 	andeq	r0, r0, r0, lsl #24
 738:	7d000200 	sfmvc	f0, 4, [r0]	; (stcvc 2, cr0, [r0])
 73c:	00000c34 	andeq	r0, r0, r4, lsr ip
 740:	0001b400 	andeq	fp, r1, r0, lsl #8
 744:	7d000300 	stcvc	3, cr0, [r0]
 748:	000000c8 	andeq	r0, r0, r8, asr #1
	...
 754:	00300000 	eorseq	r0, r0, r0
 758:	00020000 	andeq	r0, r2, r0
 75c:	00300091 	mlaseq	r0, r1, r0, r0
 760:	01b40000 	undefined instruction 0x01b40000
 764:	00010000 	andeq	r0, r1, r0
 768:	00000055 	andeq	r0, r0, r5, asr r0
 76c:	00000000 	andeq	r0, r0, r0
 770:	0000a400 	andeq	sl, r0, r0, lsl #8
 774:	0000c800 	andeq	ip, r0, r0, lsl #16
 778:	54000100 	strpl	r0, [r0], #-256	; 0x100
 77c:	000000f4 	strdeq	r0, [r0], -r4
 780:	00000178 	andeq	r0, r0, r8, ror r1
 784:	90540001 	subsls	r0, r4, r1
 788:	94000001 	strls	r0, [r0], #-1
 78c:	01000001 	tsteq	r0, r1
 790:	00005400 	andeq	r5, r0, r0, lsl #8
 794:	00000000 	andeq	r0, r0, r0
 798:	00300000 	eorseq	r0, r0, r0
 79c:	00980000 	addseq	r0, r8, r0
 7a0:	00010000 	andeq	r0, r1, r0
 7a4:	0000c856 	andeq	ip, r0, r6, asr r8
 7a8:	0001b400 	andeq	fp, r1, r0, lsl #8
 7ac:	56000100 	strpl	r0, [r0], -r0, lsl #2
	...
 7b8:	00000030 	andeq	r0, r0, r0, lsr r0
 7bc:	000000a4 	andeq	r0, r0, r4, lsr #1
 7c0:	c8540001 	ldmdagt	r4, {r0}^
 7c4:	f4000000 	vst4.8	{d0-d3}, [r0], r0
 7c8:	01000000 	tsteq	r0, r0
 7cc:	01205400 	teqeq	r0, r0, lsl #8
 7d0:	012c0000 	teqeq	ip, r0
 7d4:	00010000 	andeq	r0, r1, r0
 7d8:	00017854 	andeq	r7, r1, r4, asr r8
 7dc:	0001b400 	andeq	fp, r1, r0, lsl #8
 7e0:	54000100 	strpl	r0, [r0], #-256	; 0x100
	...
 7ec:	00000030 	andeq	r0, r0, r0, lsr r0
 7f0:	00000084 	andeq	r0, r0, r4, lsl #1
 7f4:	90520001 	subsls	r0, r2, r1
 7f8:	9c000000 	stcls	0, cr0, [r0], {0}
 7fc:	01000000 	tsteq	r0, r0
 800:	00c85200 	sbceq	r5, r8, r0, lsl #4
 804:	00d80000 	sbcseq	r0, r8, r0
 808:	00010000 	andeq	r0, r1, r0
 80c:	0000ec52 	andeq	lr, r0, r2, asr ip
 810:	00010000 	andeq	r0, r1, r0
 814:	52000100 	andpl	r0, r0, #0
 818:	00000120 	andeq	r0, r0, r0, lsr #2
 81c:	00000138 	andeq	r0, r0, r8, lsr r1
 820:	50520001 	subspl	r0, r2, r1
 824:	68000001 	stmdavs	r0, {r0}
 828:	01000001 	tsteq	r0, r1
 82c:	01685200 	cmneq	r8, r0, lsl #4
 830:	01880000 	orreq	r0, r8, r0
 834:	00010000 	andeq	r0, r1, r0
 838:	00018852 	andeq	r8, r1, r2, asr r8
 83c:	00019000 	andeq	r9, r1, r0
 840:	52000100 	andpl	r0, r0, #0
 844:	00000190 	muleq	r0, r0, r1
 848:	000001b4 	undefined instruction 0x000001b4
 84c:	00520001 	subseq	r0, r2, r1
 850:	00000000 	andeq	r0, r0, r0
 854:	Address 0x00000854 is out of bounds.


Disassembly of section .debug_ranges:

00000000 <.debug_ranges>:
   0:	0000016c 	andeq	r0, r0, ip, ror #2
   4:	00000170 	andeq	r0, r0, r0, ror r1
   8:	000001e0 	andeq	r0, r0, r0, ror #3
   c:	00000268 	andeq	r0, r0, r8, ror #4
  10:	00000178 	andeq	r0, r0, r8, ror r1
  14:	00000180 	andeq	r0, r0, r0, lsl #3
	...
  20:	0000016c 	andeq	r0, r0, ip, ror #2
  24:	00000170 	andeq	r0, r0, r0, ror r1
  28:	000001e0 	andeq	r0, r0, r0, ror #3
  2c:	00000268 	andeq	r0, r0, r8, ror #4
  30:	00000178 	andeq	r0, r0, r8, ror r1
  34:	00000180 	andeq	r0, r0, r0, lsl #3
	...
  40:	00000494 	muleq	r0, r4, r4
  44:	000004a0 	andeq	r0, r0, r0, lsr #9
  48:	000004b0 	undefined instruction 0x000004b0
  4c:	000006b0 	undefined instruction 0x000006b0
	...
  58:	00000494 	muleq	r0, r4, r4
  5c:	000004a0 	andeq	r0, r0, r0, lsr #9
  60:	000004b0 	undefined instruction 0x000004b0
  64:	000006b0 	undefined instruction 0x000006b0
	...
